; ModuleID = 'LLVMDialectModule'
source_filename = "LLVMDialectModule"
target datalayout = "e-m:e-p:32:32:32-a:0-n16:32-i64:64:64-i32:32:32-i16:16:16-i1:8:8-f32:32:32-f64:64:64-v32:32:32-v64:64:64-v512:512:512-v1024:1024:1024-v2048:2048:2048"
target triple = "hexagon"

%"class.std::__1::ios_base::Init" = type { i8 }
%"class.std::__1::basic_ostream" = type { ptr, %"class.std::__1::basic_ios" }
%"class.std::__1::basic_ios" = type { %"class.std::__1::ios_base", ptr, %struct.anon.3 }
%"class.std::__1::ios_base" = type { ptr, i32, i32, i32, i32, i32, ptr, ptr, ptr, ptr, i32, i32, ptr, i32, i32, ptr, i32, i32 }
%struct.anon.3 = type { i32 }
%"class.std::__1::locale::id" = type { %struct.anon.3, i32 }
%struct.compute_res_attr_t = type { [20 x i64] }
%struct.compute_res_vtcm_page_t = type { i32, i32, [8 x %struct.compute_res_vtcm_page_def_t] }
%struct.compute_res_vtcm_page_def_t = type { i32, i32 }
%"class.std::__1::basic_ostringstream" = type { %"class.std::__1::basic_ostream.base", %"class.std::__1::basic_stringbuf", %"class.std::__1::basic_ios" }
%"class.std::__1::basic_ostream.base" = type { ptr }
%"class.std::__1::basic_stringbuf" = type { %"class.std::__1::basic_streambuf", %"class.std::__1::basic_string", ptr, i32 }
%"class.std::__1::basic_streambuf" = type { ptr, %"class.std::__1::basic_ostream.base", ptr, ptr, ptr, ptr, ptr, ptr }
%"class.std::__1::basic_string" = type { %"class.std::__1::__compressed_pair.1" }
%"class.std::__1::__compressed_pair.1" = type { %"struct.std::__1::__compressed_pair_elem.2" }
%"struct.std::__1::__compressed_pair_elem.2" = type { %"union.std::__1::basic_string<char>::__rep" }
%"union.std::__1::basic_string<char>::__rep" = type { %"struct.std::__1::basic_string<char>::__long" }
%"struct.std::__1::basic_string<char>::__long" = type { %struct.anon.3, i32, ptr }
%"struct.std::__1::pair" = type { ptr, i32 }
%"class.std::__1::basic_ostream<char>::sentry" = type { i8, ptr }
%"struct.std::__1::__split_buffer" = type { ptr, ptr, ptr, %"class.std::__1::__compressed_pair.10" }
%"class.std::__1::__compressed_pair.10" = type { %"class.std::__1::basic_ostream.base", %"class.std::__1::basic_ostream.base" }
%struct.HAP_power_request_t = type { i8, %union.anon }
%union.anon = type { %struct.HAP_power_vapss_payload }
%struct.HAP_power_vapss_payload = type { i8, i32, i8, %struct.HAP_power_bus_bw, %struct.HAP_power_bus_bw, %struct.HAP_power_bus_bw, %struct.HAP_power_bus_bw }
%struct.HAP_power_bus_bw = type { i8, i64, i16 }
%"class.std::__1::unique_ptr.40" = type { %"class.std::__1::__compressed_pair.41" }
%"class.std::__1::__compressed_pair.41" = type { %"class.std::__1::basic_ostream.base" }
%"struct.std::__1::pair.11" = type { ptr, %"class.std::__1::unique_ptr.40" }
%"class.std::__1::unique_ptr.61" = type { %"class.std::__1::__compressed_pair.62" }
%"class.std::__1::__compressed_pair.62" = type { %"class.std::__1::basic_ostream.base", %"struct.std::__1::__compressed_pair_elem.64" }
%"struct.std::__1::__compressed_pair_elem.64" = type { %"class.std::__1::__hash_node_destructor" }
%"class.std::__1::__hash_node_destructor" = type <{ ptr, i8, [3 x i8] }>
%"class.std::__1::vector.30" = type { ptr, ptr, %"class.std::__1::__compressed_pair.41" }
%struct.MemoryCopy = type { ptr, ptr, i32 }
%struct.BufferSet = type { ptr, i32, i32 }

$_ZNSt3__119basic_ostringstreamIcNS_11char_traitsIcEENS_9allocatorIcEEEC1B8ne190000Ev = comdat any

$_ZNSt3__124__put_character_sequenceB8ne190000IcNS_11char_traitsIcEEEERNS_13basic_ostreamIT_T0_EES7_PKS4_j = comdat any

$_Z11CheckFailedPKcS0_iRKNSt3__112basic_stringIcNS1_11char_traitsIcEENS1_9allocatorIcEEEE = comdat any

$_ZNSt3__119basic_ostringstreamIcNS_11char_traitsIcEENS_9allocatorIcEEED1Ev = comdat any

$_ZNKSt3__16vectorINS_4pairIPcjEENS_9allocatorIS3_EEE20__throw_length_errorB8ne190000Ev = comdat any

$_ZSt28__throw_bad_array_new_lengthB8ne190000v = comdat any

$_ZNSt3__16vectorINS_4pairIPcjEENS_9allocatorIS3_EEED2B8ne190000Ev = comdat any

$_ZNSt3__120__throw_length_errorB8ne190000EPKc = comdat any

$_ZNSt12length_errorC2B8ne190000EPKc = comdat any

$_ZNSt3__14endlB8ne190000IcNS_11char_traitsIcEEEERNS_13basic_ostreamIT_T0_EES7_ = comdat any

$_ZNSt3__116__pad_and_outputB8ne190000IcNS_11char_traitsIcEEEENS_19ostreambuf_iteratorIT_T0_EES6_PKS4_S8_S8_RNS_8ios_baseES4_ = comdat any

$__clang_call_terminate = comdat any

$_ZNSt3__112basic_stringIcNS_11char_traitsIcEENS_9allocatorIcEEEC2B8ne190000Ejc = comdat any

$_ZNKSt3__112basic_stringIcNS_11char_traitsIcEENS_9allocatorIcEEE20__throw_length_errorB8ne190000Ev = comdat any

$_ZNSt3__16vectorINS_4pairIPcjEENS_9allocatorIS3_EEE7emplaceIJS3_EEENS_11__wrap_iterIPS3_EENS8_IPKS3_EEDpOT_ = comdat any

$_ZNSt3__114__split_bufferINS_4pairIPcjEERNS_9allocatorIS3_EEE12emplace_backIJS3_EEEvDpOT_ = comdat any

$_ZNSt3__114__split_bufferINS_4pairIPcjEERNS_9allocatorIS3_EEED2Ev = comdat any

$_ZN10HexagonAPIC2Ev = comdat any

$_ZN10HexagonAPI16AcquireResourcesEv = comdat any

$_ZNSt3__110unique_ptrI8VtcmPoolNS_14default_deleteIS1_EEED2B8ne190000Ev = comdat any

$_ZNKSt3__114default_deleteI13BufferManagerEclB8ne190000EPS1_ = comdat any

$_ZNSt3__112__hash_tableINS_17__hash_value_typeIPvNS_10unique_ptrI13HexagonBufferNS_14default_deleteIS4_EEEEEENS_22__unordered_map_hasherIS2_S8_NS_4hashIS2_EENS_8equal_toIS2_EELb1EEENS_21__unordered_map_equalIS2_S8_SD_SB_Lb1EEENS_9allocatorIS8_EEE17__deallocate_nodeEPNS_16__hash_node_baseIPNS_11__hash_nodeIS8_S2_EEEE = comdat any

$_ZNSt3__112basic_stringIcNS_11char_traitsIcEENS_9allocatorIcEEEC2B8ne190000ILi0EEEPKc = comdat any

$_ZN13BufferManager21AllocateHexagonBufferIJRjjRbEEEPvDpOT_ = comdat any

$_ZNSt3__112__hash_tableINS_17__hash_value_typeIPvNS_10unique_ptrI13HexagonBufferNS_14default_deleteIS4_EEEEEENS_22__unordered_map_hasherIS2_S8_NS_4hashIS2_EENS_8equal_toIS2_EELb1EEENS_21__unordered_map_equalIS2_S8_SD_SB_Lb1EEENS_9allocatorIS8_EEE25__emplace_unique_key_argsIS2_JNS_4pairIKS2_S7_EEEEENSL_INS_15__hash_iteratorIPNS_11__hash_nodeIS8_S2_EEEEbEERKT_DpOT0_ = comdat any

$_ZNSt3__14pairIKPvNS_10unique_ptrI13HexagonBufferNS_14default_deleteIS4_EEEEED2Ev = comdat any

$_ZNSt3__110unique_ptrI13HexagonBufferNS_14default_deleteIS1_EEED2B8ne190000Ev = comdat any

$_ZNKSt3__121__murmur2_or_cityhashIjLj32EEclB8ne190000EPKvj = comdat any

$_ZNSt3__112__hash_tableINS_17__hash_value_typeIPvNS_10unique_ptrI13HexagonBufferNS_14default_deleteIS4_EEEEEENS_22__unordered_map_hasherIS2_S8_NS_4hashIS2_EENS_8equal_toIS2_EELb1EEENS_21__unordered_map_equalIS2_S8_SD_SB_Lb1EEENS_9allocatorIS8_EEE8__rehashILb1EEEvj = comdat any

$_ZNSt3__122__hash_node_destructorINS_9allocatorINS_11__hash_nodeINS_17__hash_value_typeIPvNS_10unique_ptrI13HexagonBufferNS_14default_deleteIS6_EEEEEES4_EEEEEclB8ne190000EPSB_ = comdat any

$_ZNSt3__112__hash_tableINS_17__hash_value_typeIPvNS_10unique_ptrI13HexagonBufferNS_14default_deleteIS4_EEEEEENS_22__unordered_map_hasherIS2_S8_NS_4hashIS2_EENS_8equal_toIS2_EELb1EEENS_21__unordered_map_equalIS2_S8_SD_SB_Lb1EEENS_9allocatorIS8_EEE11__do_rehashILb1EEEvj = comdat any

$_ZN13BufferManager21AllocateHexagonBufferIJRjS1_jRbEEEPvDpOT_ = comdat any

$_ZN13BufferManager17FreeHexagonBufferEPv = comdat any

$_ZNSt3__112__hash_tableINS_17__hash_value_typeIPvNS_10unique_ptrI13HexagonBufferNS_14default_deleteIS4_EEEEEENS_22__unordered_map_hasherIS2_S8_NS_4hashIS2_EENS_8equal_toIS2_EELb1EEENS_21__unordered_map_equalIS2_S8_SD_SB_Lb1EEENS_9allocatorIS8_EEE4findIS2_EENS_15__hash_iteratorIPNS_11__hash_nodeIS8_S2_EEEERKT_ = comdat any

$_ZNSt3__112__hash_tableINS_17__hash_value_typeIPvNS_10unique_ptrI13HexagonBufferNS_14default_deleteIS4_EEEEEENS_22__unordered_map_hasherIS2_S8_NS_4hashIS2_EENS_8equal_toIS2_EELb1EEENS_21__unordered_map_equalIS2_S8_SD_SB_Lb1EEENS_9allocatorIS8_EEE6removeENS_21__hash_const_iteratorIPNS_11__hash_nodeIS8_S2_EEEE = comdat any

$_ZN13BufferManager4CopyEPvS0_j = comdat any

$_ZN13DDRAllocationC2Ejj = comdat any

$_ZN13DDRAllocationD2Ev = comdat any

$_ZN13DDRAllocationD0Ev = comdat any

$_ZN14VTCMAllocationC2Ejj = comdat any

$_ZN10HexagonAPI11getVtcmPoolEv = comdat any

$_ZN14VTCMAllocationD2Ev = comdat any

$_ZN14VTCMAllocationD0Ev = comdat any

$_ZNKSt3__16vectorIPvNS_9allocatorIS1_EEE20__throw_length_errorB8ne190000Ev = comdat any

$_ZNSt3__16vectorINS_10unique_ptrI10AllocationNS_14default_deleteIS2_EEEENS_9allocatorIS5_EEE9push_backB8ne190000EOS5_ = comdat any

$_ZNSt3__16vectorINS_10unique_ptrI10AllocationNS_14default_deleteIS2_EEEENS_9allocatorIS5_EEE16__destroy_vectorclB8ne190000Ev = comdat any

$_ZNSt3__16vectorIPvNS_9allocatorIS1_EEED2B8ne190000Ev = comdat any

$_ZNKSt3__16vectorINS_10unique_ptrI10AllocationNS_14default_deleteIS2_EEEENS_9allocatorIS5_EEE20__throw_length_errorB8ne190000Ev = comdat any

$_ZNKSt3__16vectorI10MemoryCopyNS_9allocatorIS1_EEE20__throw_length_errorB8ne190000Ev = comdat any

$_ZNSt3__16vectorI10MemoryCopyNS_9allocatorIS1_EEED2B8ne190000Ev = comdat any

$_ZTV13DDRAllocation = comdat any

$_ZTS13DDRAllocation = comdat any

$_ZTS10Allocation = comdat any

$_ZTI10Allocation = comdat any

$_ZTI13DDRAllocation = comdat any

$_ZTV14VTCMAllocation = comdat any

$_ZTS14VTCMAllocation = comdat any

$_ZTI14VTCMAllocation = comdat any

@llvm.global_ctors = appending global [4 x { i32, ptr, ptr }] [{ i32, ptr, ptr } { i32 65535, ptr @_GLOBAL__sub_I_VTCMPool.cpp, ptr null }, { i32, ptr, ptr } { i32 65535, ptr @_GLOBAL__sub_I_HexagonAPI.cpp, ptr null }, { i32, ptr, ptr } { i32 65535, ptr @_GLOBAL__sub_I_HexagonCAPI.cpp, ptr null }, { i32, ptr, ptr } { i32 65535, ptr @_GLOBAL__sub_I_HexagonBuffer.cpp, ptr null }]
@_ZL9_Ios_init = internal global %"class.std::__1::ios_base::Init" zeroinitializer, align 1
@.str = private unnamed_addr constant [101 x i8] c"/home/allenjin/Projects/qualcomm-mlir/hexagon-mlir/qcom_hexagon_backend/bin/runtime/src/VTCMPool.cpp\00", align 1
@.str.1 = private unnamed_addr constant [65 x i8] c"ERROR: HAP_compute_res_attr_init(&resInfo) failed with error %d.\00", align 1
@.str.2 = private unnamed_addr constant [134 x i8] c"ERROR: compute_resource_query_VTCM( 0, &vtcmDeviceSize_, &totalBlockLayout, &availBlockSize, &availBlockLayout) failed with error %d.\00", align 1
@.str.3 = private unnamed_addr constant [31 x i8] c"\22Less than 1MB VTCM available\22\00", align 1
@.str.4 = private unnamed_addr constant [34 x i8] c"(availBlockSize >= (1024 * 1024))\00", align 1
@.str.5 = private unnamed_addr constant [122 x i8] c"ERROR: HAP_compute_res_attr_set_vtcm_param_v2( &resInfo, vtcmDeviceSize_, pageSize, availBlockSize) failed with error %d.\00", align 1
@.str.6 = private unnamed_addr constant [68 x i8] c"\22HAP_compute_res_acquire failed to acquire requested VTCM resource\22\00", align 1
@.str.7 = private unnamed_addr constant [13 x i8] c"(contextId_)\00", align 1
@.str.8 = private unnamed_addr constant [109 x i8] c"ERROR: HAP_compute_res_attr_get_vtcm_ptr_v2(&resInfo, &vtcmData_, &vtcmAllocatedSize_) failed with error %d.\00", align 1
@.str.9 = private unnamed_addr constant [64 x i8] c"\22HAP_compute_res_acquire returned nullptr when allocating VTCM\22\00", align 1
@.str.10 = private unnamed_addr constant [23 x i8] c"(vtcmData_ != nullptr)\00", align 1
@.str.11 = private unnamed_addr constant [68 x i8] c"\22HAP_compute_res_acquire failed to allocate minimum amount of VTCM\22\00", align 1
@.str.12 = private unnamed_addr constant [39 x i8] c"(vtcmAllocatedSize_ >= availBlockSize)\00", align 1
@.str.13 = private unnamed_addr constant [65 x i8] c"ERROR: HAP_compute_res_release(contextId_) failed with error %d.\00", align 1
@.str.14 = private unnamed_addr constant [15 x i8] c"\22No free VTCM\22\00", align 1
@.str.15 = private unnamed_addr constant [17 x i8] c"(!free_.empty())\00", align 1
@.str.16 = private unnamed_addr constant [63 x i8] c"\22Minimum VTCM alloation must be 128 bytes - nbytes \22 << nbytes\00", align 1
@.str.17 = private unnamed_addr constant [17 x i8] c"(nbytes >= 0x80)\00", align 1
@.str.18 = private unnamed_addr constant [58 x i8] c"\22Not enough contiguous VTCM space at the end to allocate\22\00", align 1
@.str.19 = private unnamed_addr constant [34 x i8] c"(lastFreeEntry->second >= nbytes)\00", align 1
@.str.20 = private unnamed_addr constant [47 x i8] c"\22Not enough contiguous VTCM space to allocate\22\00", align 1
@.str.21 = private unnamed_addr constant [36 x i8] c"(entryToAllocate->second >= nbytes)\00", align 1
@.str.22 = private unnamed_addr constant [58 x i8] c"\22Attempted to free a pointer that had not been allocated\22\00", align 1
@.str.23 = private unnamed_addr constant [27 x i8] c"(it != allocations_.end())\00", align 1
@.str.24 = private unnamed_addr constant [56 x i8] c"\22Attempted to free a different size than was allocated\22\00", align 1
@.str.25 = private unnamed_addr constant [23 x i8] c"(it->second == nbytes)\00", align 1
@.str.26 = private unnamed_addr constant [53 x i8] c"\22Attempting to free a pointer that was already free\22\00", align 1
@.str.27 = private unnamed_addr constant [25 x i8] c"(ptrToFree != it->first)\00", align 1
@.str.28 = private unnamed_addr constant [68 x i8] c"\22free_ is in an inconsistent state, freed block overlaps with next\22\00", align 1
@.str.29 = private unnamed_addr constant [34 x i8] c"(ptrToFree + nbytes <= it->first)\00", align 1
@.str.30 = private unnamed_addr constant [75 x i8] c"\22free_ is in an inconsistent state, freed block overlaps with \22 \22previous\22\00", align 1
@.str.31 = private unnamed_addr constant [48 x i8] c"(it_prev->first + it_prev->second <= ptrToFree)\00", align 1
@.str.32 = private unnamed_addr constant [8 x i8] c"Error: \00", align 1
@.str.33 = private unnamed_addr constant [12 x i8] c" failed at \00", align 1
@.str.34 = private unnamed_addr constant [2 x i8] c":\00", align 1
@.str.35 = private unnamed_addr constant [4 x i8] c" - \00", align 1
@.str.36 = private unnamed_addr constant [13 x i8] c"basic_string\00", align 1
@.str.37 = private unnamed_addr constant [7 x i8] c"vector\00", align 1
@_ZL9_Ios_init.2 = internal global %"class.std::__1::ios_base::Init" zeroinitializer, align 1
@_ZZN10HexagonAPI6GlobalEvE4inst = internal unnamed_addr global ptr null, align 4
@_ZGVZN10HexagonAPI6GlobalEvE4inst = internal global i64 0, section ".bss._ZGVZN10HexagonAPI6GlobalEvE4inst", align 8
@.str.38 = private unnamed_addr constant [103 x i8] c"/home/allenjin/Projects/qualcomm-mlir/hexagon-mlir/qcom_hexagon_backend/bin/runtime/src/HexagonAPI.cpp\00", align 1
@.str.1.39 = private unnamed_addr constant [85 x i8] c"HMX resource allocation failed at HAP_power_set_HMX request with the return value %d\00", align 1
@.str.2.40 = private unnamed_addr constant [32 x i8] c"\22Free called outside a session\22\00", align 1
@.str.3.41 = private unnamed_addr constant [8 x i8] c"(false)\00", align 1
@.str.4.4 = private unnamed_addr constant [23 x i8] c"runtimeVtcm != nullptr\00", align 1
@.str.5.5 = private unnamed_addr constant [105 x i8] c"/home/allenjin/Projects/qualcomm-mlir/hexagon-mlir/qcom_hexagon_backend/bin/runtime/include/HexagonAPI.h\00", align 1
@.str.6.3 = private unnamed_addr constant [1 x i8] zeroinitializer, align 1
@.str.7.6 = private unnamed_addr constant [25 x i8] c"bufferManager != nullptr\00", align 1
@.str.9.42 = private unnamed_addr constant [59 x i8] c"\22Attempt made to free unknown or already freed allocation\22\00", align 1
@.str.10.43 = private unnamed_addr constant [25 x i8] c"(it != bufferMap_.end())\00", align 1
@.str.11.44 = private unnamed_addr constant [108 x i8] c"/home/allenjin/Projects/qualcomm-mlir/hexagon-mlir/qcom_hexagon_backend/bin/runtime/include/BufferManager.h\00", align 1
@.str.12.45 = private unnamed_addr constant [22 x i8] c"it->second != nullptr\00", align 1
@.str.17.46 = private unnamed_addr constant [48 x i8] c"\22One of the src/dst should be a hexagon buffer\22\00", align 1
@_ZL9_Ios_init.48 = internal global %"class.std::__1::ios_base::Init" zeroinitializer, align 1
@_ZL9_Ios_init.56 = internal global %"class.std::__1::ios_base::Init" zeroinitializer, align 1
@__dso_handle = external global i8
@.str.2.59 = private unnamed_addr constant [106 x i8] c"/home/allenjin/Projects/qualcomm-mlir/hexagon-mlir/qcom_hexagon_backend/bin/runtime/src/HexagonBuffer.cpp\00", align 1
@.str.4.70 = private unnamed_addr constant [79 x i8] c"\22Internal failure, allocations_ should be set \22 \22in HexagonBuffer constructor\22\00", align 1
@.str.5.71 = private unnamed_addr constant [22 x i8] c"(allocations_.size())\00", align 1
@.str.6.72 = private unnamed_addr constant [44 x i8] c"\22HexagonBuffer should be either 1-d or 2-d\22\00", align 1
@.str.7.73 = private unnamed_addr constant [31 x i8] c"((ndim_ == 1) || (ndim_ == 2))\00", align 1
@.str.8.74 = private unnamed_addr constant [25 x i8] c"allocations_.size() != 1\00", align 1
@.str.9.57 = private unnamed_addr constant [1 x i8] zeroinitializer, align 1
@.str.10.75 = private unnamed_addr constant [32 x i8] c"bytesToCopy <= src.TotalBytes()\00", align 1
@.str.11.76 = private unnamed_addr constant [33 x i8] c"bytesToCopy <= dest.TotalBytes()\00", align 1
@_ZNSt3__14cerrE = external global %"class.std::__1::basic_ostream", align 4
@_ZTISt12length_error = external constant ptr
@_ZTVSt12length_error = external unnamed_addr constant { [5 x ptr] }, align 4
@_ZTISt20bad_array_new_length = external constant ptr
@_ZNSt3__15ctypeIcE2idE = external global %"class.std::__1::locale::id", align 4
@_ZTVNSt3__119basic_ostringstreamIcNS_11char_traitsIcEENS_9allocatorIcEEEE = external unnamed_addr constant { [5 x ptr], [5 x ptr] }, align 4
@_ZTTNSt3__119basic_ostringstreamIcNS_11char_traitsIcEENS_9allocatorIcEEEE = external unnamed_addr constant [4 x ptr], align 4
@_ZTVNSt3__115basic_stringbufIcNS_11char_traitsIcEENS_9allocatorIcEEEE = external unnamed_addr constant { [16 x ptr] }, align 4
@_ZTV13DDRAllocation = linkonce_odr hidden unnamed_addr constant { [4 x ptr] } { [4 x ptr] [ptr null, ptr @_ZTI13DDRAllocation, ptr @_ZN13DDRAllocationD2Ev, ptr @_ZN13DDRAllocationD0Ev] }, comdat, align 4
@.str.17.58 = private unnamed_addr constant [9 x i8] c"ret != 0\00", align 1
@_ZTVN10__cxxabiv120__si_class_type_infoE = external global [0 x ptr]
@_ZTS13DDRAllocation = linkonce_odr hidden constant [16 x i8] c"13DDRAllocation\00", comdat, align 1
@_ZTVN10__cxxabiv117__class_type_infoE = external global [0 x ptr]
@_ZTS10Allocation = linkonce_odr hidden constant [13 x i8] c"10Allocation\00", comdat, align 1
@_ZTI10Allocation = linkonce_odr hidden constant { ptr, ptr } { ptr getelementptr inbounds (ptr, ptr @_ZTVN10__cxxabiv117__class_type_infoE, i32 2), ptr @_ZTS10Allocation }, comdat, align 4
@_ZTI13DDRAllocation = linkonce_odr hidden constant { ptr, ptr, ptr } { ptr getelementptr inbounds (ptr, ptr @_ZTVN10__cxxabiv120__si_class_type_infoE, i32 2), ptr @_ZTS13DDRAllocation, ptr @_ZTI10Allocation }, comdat, align 4
@_ZTV14VTCMAllocation = linkonce_odr hidden unnamed_addr constant { [4 x ptr] } { [4 x ptr] [ptr null, ptr @_ZTI14VTCMAllocation, ptr @_ZN14VTCMAllocationD2Ev, ptr @_ZN14VTCMAllocationD0Ev] }, comdat, align 4
@.str.18.60 = private unnamed_addr constant [60 x i8] c"\22VTCMAllocation called for invalid alignment \22 << alignment\00", align 1
@.str.19.61 = private unnamed_addr constant [46 x i8] c"((alignment <= 0x80) || (alignment == 0x800))\00", align 1
@.str.20.62 = private unnamed_addr constant [22 x i8] c"\22VTCM not acquired\\n\22\00", align 1
@.str.21.63 = private unnamed_addr constant [36 x i8] c"HexagonAPI::Global()->getVtcmPool()\00", align 1
@_ZTS14VTCMAllocation = linkonce_odr hidden constant [17 x i8] c"14VTCMAllocation\00", comdat, align 1
@_ZTI14VTCMAllocation = linkonce_odr hidden constant { ptr, ptr, ptr } { ptr getelementptr inbounds (ptr, ptr @_ZTVN10__cxxabiv120__si_class_type_infoE, i32 2), ptr @_ZTS14VTCMAllocation, ptr @_ZTI10Allocation }, comdat, align 4
@.str.22.64 = private unnamed_addr constant [35 x i8] c"\22runtimeVtcm has not been created\22\00", align 1
@.str.23.65 = private unnamed_addr constant [14 x i8] c"(runtimeVtcm)\00", align 1
@.str.24.66 = private unnamed_addr constant [105 x i8] c"/home/allenjin/Projects/qualcomm-mlir/hexagon-mlir/qcom_hexagon_backend/bin/runtime/include/HexagonAPI.h\00", align 1
@.str.25.67 = private unnamed_addr constant [7 x i8] c"vector\00", align 1

@_ZN8VtcmPoolC1Ev = hidden unnamed_addr alias void (ptr), ptr @_ZN8VtcmPoolC2Ev
@_ZN8VtcmPoolD1Ev = hidden unnamed_addr alias void (ptr), ptr @_ZN8VtcmPoolD2Ev
@_ZN13HexagonBufferC1Ejjb = hidden unnamed_addr alias void (ptr, i32, i32, i1), ptr @_ZN13HexagonBufferC2Ejjb
@_ZN13HexagonBufferC1Ejjjb = hidden unnamed_addr alias void (ptr, i32, i32, i32, i1), ptr @_ZN13HexagonBufferC2Ejjjb
@_ZN13HexagonBufferD1Ev = hidden unnamed_addr alias void (ptr), ptr @_ZN13HexagonBufferD2Ev

; Function Attrs: mustprogress nounwind willreturn allockind("free") memory(argmem: readwrite, inaccessiblemem: readwrite)
declare void @free(ptr allocptr noundef captures(none)) local_unnamed_addr #0

declare ptr @malloc(i64) local_unnamed_addr #1

define void @hexkl_linalg_matmul(i64 %0, ptr readonly captures(none) %1, i64 %2, ptr readonly captures(none) %3, i64 %4, ptr readonly captures(none) %5, i32 %6, i32 %7, i32 %8, i32 %9, i32 %10, i32 %11) local_unnamed_addr #1 {
  %13 = getelementptr i8, ptr %5, i32 4
  %14 = load ptr, ptr %13, align 8
  %15 = getelementptr i8, ptr %1, i32 4
  %16 = load ptr, ptr %15, align 8
  %17 = getelementptr i8, ptr %3, i32 4
  %18 = load ptr, ptr %17, align 8
  %19 = tail call ptr @hexagon_runtime_alloc_1d(i32 65536, i64 128, i1 true)
  tail call void @hexagon_runtime_copy(ptr %19, ptr %18, i32 65536, i1 true, i1 false)
  tail call void @llvm.memset.p0.i32(ptr noundef nonnull align 4 dereferenceable(2097152) %14, i8 0, i32 2097152, i1 false)
  %20 = tail call ptr @hexagon_runtime_alloc_1d(i32 65536, i64 128, i1 true)
  %21 = tail call ptr @hexagon_runtime_alloc_1d(i32 1048576, i64 128, i1 true)
  %22 = tail call ptr @malloc(i64 68)
  %23 = ptrtoint ptr %22 to i32
  %24 = add i32 %23, 63
  %25 = and i32 %24, -64
  %26 = inttoptr i32 %25 to ptr
  tail call void @hexagon_runtime_copy(ptr %20, ptr %16, i32 65536, i1 true, i1 false)
  tail call void @hexagon_runtime_copy(ptr %21, ptr nonnull %14, i32 1048576, i1 true, i1 false)
  br label %.preheader

.preheader:                                       ; preds = %12, %142
  %27 = phi i64 [ 0, %12 ], [ %143, %142 ]
  %28 = shl nuw nsw i64 %27, 6
  %29 = shl nuw nsw i64 %27, 9
  %30 = trunc nuw nsw i64 %29 to i32
  %31 = getelementptr float, ptr %21, i32 %30
  %32 = trunc nuw nsw i64 %29 to i32
  %33 = getelementptr float, ptr %21, i32 %32
  %34 = getelementptr i8, ptr %33, i32 256
  %35 = trunc nuw nsw i64 %29 to i32
  %36 = getelementptr float, ptr %21, i32 %35
  %37 = getelementptr i8, ptr %36, i32 512
  %38 = trunc nuw nsw i64 %29 to i32
  %39 = getelementptr float, ptr %21, i32 %38
  %40 = getelementptr i8, ptr %39, i32 768
  %41 = trunc nuw nsw i64 %29 to i32
  %42 = getelementptr float, ptr %21, i32 %41
  %43 = getelementptr i8, ptr %42, i32 1024
  %44 = trunc nuw nsw i64 %29 to i32
  %45 = getelementptr float, ptr %21, i32 %44
  %46 = getelementptr i8, ptr %45, i32 1280
  %47 = trunc nuw nsw i64 %29 to i32
  %48 = getelementptr float, ptr %21, i32 %47
  %49 = getelementptr i8, ptr %48, i32 1536
  %50 = trunc nuw nsw i64 %29 to i32
  %51 = getelementptr float, ptr %21, i32 %50
  %52 = getelementptr i8, ptr %51, i32 1792
  br label %53

53:                                               ; preds = %.preheader, %53
  %54 = phi i64 [ 0, %.preheader ], [ %140, %53 ]
  %55 = add nuw nsw i64 %54, %28
  %56 = trunc nuw nsw i64 %55 to i32
  %57 = getelementptr half, ptr %20, i32 %56
  %58 = load half, ptr %57, align 2
  %59 = fpext half %58 to float
  store float %59, ptr %26, align 64
  %60 = shl nuw nsw i64 %54, 9
  %61 = trunc nuw nsw i64 %60 to i32
  %62 = getelementptr half, ptr %19, i32 %61
  %63 = load <64 x half>, ptr %62, align 2
  %64 = load <64 x float>, ptr %31, align 4
  %65 = insertelement <1 x float> poison, float %59, i64 0
  %66 = shufflevector <1 x float> %65, <1 x float> poison, <64 x i32> zeroinitializer
  %67 = fpext <64 x half> %63 to <64 x float>
  %68 = fmul fast <64 x float> %66, %67
  %69 = fadd fast <64 x float> %68, %64
  store <64 x float> %69, ptr %31, align 4
  %70 = trunc nuw nsw i64 %60 to i32
  %71 = getelementptr half, ptr %19, i32 %70
  %72 = getelementptr i8, ptr %71, i32 128
  %73 = load <64 x half>, ptr %72, align 2
  %74 = load <64 x float>, ptr %34, align 4
  %75 = load <1 x float>, ptr %26, align 64
  %76 = shufflevector <1 x float> %75, <1 x float> poison, <64 x i32> zeroinitializer
  %77 = fpext <64 x half> %73 to <64 x float>
  %78 = fmul fast <64 x float> %76, %77
  %79 = fadd fast <64 x float> %78, %74
  store <64 x float> %79, ptr %34, align 4
  %80 = trunc nuw nsw i64 %60 to i32
  %81 = getelementptr half, ptr %19, i32 %80
  %82 = getelementptr i8, ptr %81, i32 256
  %83 = load <64 x half>, ptr %82, align 2
  %84 = load <64 x float>, ptr %37, align 4
  %85 = load <1 x float>, ptr %26, align 64
  %86 = shufflevector <1 x float> %85, <1 x float> poison, <64 x i32> zeroinitializer
  %87 = fpext <64 x half> %83 to <64 x float>
  %88 = fmul fast <64 x float> %86, %87
  %89 = fadd fast <64 x float> %88, %84
  store <64 x float> %89, ptr %37, align 4
  %90 = trunc nuw nsw i64 %60 to i32
  %91 = getelementptr half, ptr %19, i32 %90
  %92 = getelementptr i8, ptr %91, i32 384
  %93 = load <64 x half>, ptr %92, align 2
  %94 = load <64 x float>, ptr %40, align 4
  %95 = load <1 x float>, ptr %26, align 64
  %96 = shufflevector <1 x float> %95, <1 x float> poison, <64 x i32> zeroinitializer
  %97 = fpext <64 x half> %93 to <64 x float>
  %98 = fmul fast <64 x float> %96, %97
  %99 = fadd fast <64 x float> %98, %94
  store <64 x float> %99, ptr %40, align 4
  %100 = trunc nuw nsw i64 %60 to i32
  %101 = getelementptr half, ptr %19, i32 %100
  %102 = getelementptr i8, ptr %101, i32 512
  %103 = load <64 x half>, ptr %102, align 2
  %104 = load <64 x float>, ptr %43, align 4
  %105 = load <1 x float>, ptr %26, align 64
  %106 = shufflevector <1 x float> %105, <1 x float> poison, <64 x i32> zeroinitializer
  %107 = fpext <64 x half> %103 to <64 x float>
  %108 = fmul fast <64 x float> %106, %107
  %109 = fadd fast <64 x float> %108, %104
  store <64 x float> %109, ptr %43, align 4
  %110 = trunc nuw nsw i64 %60 to i32
  %111 = getelementptr half, ptr %19, i32 %110
  %112 = getelementptr i8, ptr %111, i32 640
  %113 = load <64 x half>, ptr %112, align 2
  %114 = load <64 x float>, ptr %46, align 4
  %115 = load <1 x float>, ptr %26, align 64
  %116 = shufflevector <1 x float> %115, <1 x float> poison, <64 x i32> zeroinitializer
  %117 = fpext <64 x half> %113 to <64 x float>
  %118 = fmul fast <64 x float> %116, %117
  %119 = fadd fast <64 x float> %118, %114
  store <64 x float> %119, ptr %46, align 4
  %120 = trunc nuw nsw i64 %60 to i32
  %121 = getelementptr half, ptr %19, i32 %120
  %122 = getelementptr i8, ptr %121, i32 768
  %123 = load <64 x half>, ptr %122, align 2
  %124 = load <64 x float>, ptr %49, align 4
  %125 = load <1 x float>, ptr %26, align 64
  %126 = shufflevector <1 x float> %125, <1 x float> poison, <64 x i32> zeroinitializer
  %127 = fpext <64 x half> %123 to <64 x float>
  %128 = fmul fast <64 x float> %126, %127
  %129 = fadd fast <64 x float> %128, %124
  store <64 x float> %129, ptr %49, align 4
  %130 = trunc nuw nsw i64 %60 to i32
  %131 = getelementptr half, ptr %19, i32 %130
  %132 = getelementptr i8, ptr %131, i32 896
  %133 = load <64 x half>, ptr %132, align 2
  %134 = load <64 x float>, ptr %52, align 4
  %135 = load <1 x float>, ptr %26, align 64
  %136 = shufflevector <1 x float> %135, <1 x float> poison, <64 x i32> zeroinitializer
  %137 = fpext <64 x half> %133 to <64 x float>
  %138 = fmul fast <64 x float> %136, %137
  %139 = fadd fast <64 x float> %138, %134
  store <64 x float> %139, ptr %52, align 4
  %140 = add nuw nsw i64 %54, 1
  %141 = icmp samesign ult i64 %54, 63
  br i1 %141, label %53, label %142

142:                                              ; preds = %53
  %143 = add nuw nsw i64 %27, 1
  %144 = icmp samesign ult i64 %27, 511
  br i1 %144, label %.preheader, label %145

145:                                              ; preds = %142
  tail call void @hexagon_runtime_copy(ptr nonnull %14, ptr nonnull %21, i32 1048576, i1 false, i1 true)
  %146 = getelementptr i8, ptr %16, i32 65536
  tail call void @hexagon_runtime_copy(ptr nonnull %20, ptr %146, i32 65536, i1 true, i1 false)
  %147 = getelementptr i8, ptr %14, i32 1048576
  tail call void @hexagon_runtime_copy(ptr nonnull %21, ptr %147, i32 1048576, i1 true, i1 false)
  br label %.preheader.1

.preheader.1:                                     ; preds = %263, %145
  %148 = phi i64 [ 0, %145 ], [ %264, %263 ]
  %149 = shl nuw nsw i64 %148, 6
  %150 = shl nuw nsw i64 %148, 9
  %151 = trunc nuw nsw i64 %150 to i32
  %152 = getelementptr float, ptr %21, i32 %151
  %153 = trunc nuw nsw i64 %150 to i32
  %154 = getelementptr float, ptr %21, i32 %153
  %155 = getelementptr i8, ptr %154, i32 256
  %156 = trunc nuw nsw i64 %150 to i32
  %157 = getelementptr float, ptr %21, i32 %156
  %158 = getelementptr i8, ptr %157, i32 512
  %159 = trunc nuw nsw i64 %150 to i32
  %160 = getelementptr float, ptr %21, i32 %159
  %161 = getelementptr i8, ptr %160, i32 768
  %162 = trunc nuw nsw i64 %150 to i32
  %163 = getelementptr float, ptr %21, i32 %162
  %164 = getelementptr i8, ptr %163, i32 1024
  %165 = trunc nuw nsw i64 %150 to i32
  %166 = getelementptr float, ptr %21, i32 %165
  %167 = getelementptr i8, ptr %166, i32 1280
  %168 = trunc nuw nsw i64 %150 to i32
  %169 = getelementptr float, ptr %21, i32 %168
  %170 = getelementptr i8, ptr %169, i32 1536
  %171 = trunc nuw nsw i64 %150 to i32
  %172 = getelementptr float, ptr %21, i32 %171
  %173 = getelementptr i8, ptr %172, i32 1792
  br label %174

174:                                              ; preds = %174, %.preheader.1
  %175 = phi i64 [ 0, %.preheader.1 ], [ %261, %174 ]
  %176 = add nuw nsw i64 %175, %149
  %177 = trunc nuw nsw i64 %176 to i32
  %178 = getelementptr half, ptr %20, i32 %177
  %179 = load half, ptr %178, align 2
  %180 = fpext half %179 to float
  store float %180, ptr %26, align 64
  %181 = shl nuw nsw i64 %175, 9
  %182 = trunc nuw nsw i64 %181 to i32
  %183 = getelementptr half, ptr %19, i32 %182
  %184 = load <64 x half>, ptr %183, align 2
  %185 = load <64 x float>, ptr %152, align 4
  %186 = insertelement <1 x float> poison, float %180, i64 0
  %187 = shufflevector <1 x float> %186, <1 x float> poison, <64 x i32> zeroinitializer
  %188 = fpext <64 x half> %184 to <64 x float>
  %189 = fmul fast <64 x float> %187, %188
  %190 = fadd fast <64 x float> %189, %185
  store <64 x float> %190, ptr %152, align 4
  %191 = trunc nuw nsw i64 %181 to i32
  %192 = getelementptr half, ptr %19, i32 %191
  %193 = getelementptr i8, ptr %192, i32 128
  %194 = load <64 x half>, ptr %193, align 2
  %195 = load <64 x float>, ptr %155, align 4
  %196 = load <1 x float>, ptr %26, align 64
  %197 = shufflevector <1 x float> %196, <1 x float> poison, <64 x i32> zeroinitializer
  %198 = fpext <64 x half> %194 to <64 x float>
  %199 = fmul fast <64 x float> %197, %198
  %200 = fadd fast <64 x float> %199, %195
  store <64 x float> %200, ptr %155, align 4
  %201 = trunc nuw nsw i64 %181 to i32
  %202 = getelementptr half, ptr %19, i32 %201
  %203 = getelementptr i8, ptr %202, i32 256
  %204 = load <64 x half>, ptr %203, align 2
  %205 = load <64 x float>, ptr %158, align 4
  %206 = load <1 x float>, ptr %26, align 64
  %207 = shufflevector <1 x float> %206, <1 x float> poison, <64 x i32> zeroinitializer
  %208 = fpext <64 x half> %204 to <64 x float>
  %209 = fmul fast <64 x float> %207, %208
  %210 = fadd fast <64 x float> %209, %205
  store <64 x float> %210, ptr %158, align 4
  %211 = trunc nuw nsw i64 %181 to i32
  %212 = getelementptr half, ptr %19, i32 %211
  %213 = getelementptr i8, ptr %212, i32 384
  %214 = load <64 x half>, ptr %213, align 2
  %215 = load <64 x float>, ptr %161, align 4
  %216 = load <1 x float>, ptr %26, align 64
  %217 = shufflevector <1 x float> %216, <1 x float> poison, <64 x i32> zeroinitializer
  %218 = fpext <64 x half> %214 to <64 x float>
  %219 = fmul fast <64 x float> %217, %218
  %220 = fadd fast <64 x float> %219, %215
  store <64 x float> %220, ptr %161, align 4
  %221 = trunc nuw nsw i64 %181 to i32
  %222 = getelementptr half, ptr %19, i32 %221
  %223 = getelementptr i8, ptr %222, i32 512
  %224 = load <64 x half>, ptr %223, align 2
  %225 = load <64 x float>, ptr %164, align 4
  %226 = load <1 x float>, ptr %26, align 64
  %227 = shufflevector <1 x float> %226, <1 x float> poison, <64 x i32> zeroinitializer
  %228 = fpext <64 x half> %224 to <64 x float>
  %229 = fmul fast <64 x float> %227, %228
  %230 = fadd fast <64 x float> %229, %225
  store <64 x float> %230, ptr %164, align 4
  %231 = trunc nuw nsw i64 %181 to i32
  %232 = getelementptr half, ptr %19, i32 %231
  %233 = getelementptr i8, ptr %232, i32 640
  %234 = load <64 x half>, ptr %233, align 2
  %235 = load <64 x float>, ptr %167, align 4
  %236 = load <1 x float>, ptr %26, align 64
  %237 = shufflevector <1 x float> %236, <1 x float> poison, <64 x i32> zeroinitializer
  %238 = fpext <64 x half> %234 to <64 x float>
  %239 = fmul fast <64 x float> %237, %238
  %240 = fadd fast <64 x float> %239, %235
  store <64 x float> %240, ptr %167, align 4
  %241 = trunc nuw nsw i64 %181 to i32
  %242 = getelementptr half, ptr %19, i32 %241
  %243 = getelementptr i8, ptr %242, i32 768
  %244 = load <64 x half>, ptr %243, align 2
  %245 = load <64 x float>, ptr %170, align 4
  %246 = load <1 x float>, ptr %26, align 64
  %247 = shufflevector <1 x float> %246, <1 x float> poison, <64 x i32> zeroinitializer
  %248 = fpext <64 x half> %244 to <64 x float>
  %249 = fmul fast <64 x float> %247, %248
  %250 = fadd fast <64 x float> %249, %245
  store <64 x float> %250, ptr %170, align 4
  %251 = trunc nuw nsw i64 %181 to i32
  %252 = getelementptr half, ptr %19, i32 %251
  %253 = getelementptr i8, ptr %252, i32 896
  %254 = load <64 x half>, ptr %253, align 2
  %255 = load <64 x float>, ptr %173, align 4
  %256 = load <1 x float>, ptr %26, align 64
  %257 = shufflevector <1 x float> %256, <1 x float> poison, <64 x i32> zeroinitializer
  %258 = fpext <64 x half> %254 to <64 x float>
  %259 = fmul fast <64 x float> %257, %258
  %260 = fadd fast <64 x float> %259, %255
  store <64 x float> %260, ptr %173, align 4
  %261 = add nuw nsw i64 %175, 1
  %262 = icmp samesign ult i64 %175, 63
  br i1 %262, label %174, label %263

263:                                              ; preds = %174
  %264 = add nuw nsw i64 %148, 1
  %265 = icmp samesign ult i64 %148, 511
  br i1 %265, label %.preheader.1, label %266

266:                                              ; preds = %263
  tail call void @hexagon_runtime_copy(ptr %147, ptr nonnull %21, i32 1048576, i1 false, i1 true)
  tail call void @hexagon_runtime_free_1d(ptr nonnull %19)
  tail call void @hexagon_runtime_free_1d(ptr nonnull %20)
  tail call void @hexagon_runtime_free_1d(ptr nonnull %21)
  tail call void @free(ptr %22)
  ret void
}

; Function Attrs: nocallback nofree nounwind willreturn memory(argmem: write)
declare void @llvm.memset.p0.i32(ptr writeonly captures(none), i8, i32, i1 immarg) #2

define internal void @_GLOBAL__sub_I_VTCMPool.cpp() #3 {
entry:
  tail call void @_ZNSt3__18ios_base4InitC1Ev(ptr noundef nonnull align 1 dereferenceable(1) @_ZL9_Ios_init)
  %0 = tail call i32 @__cxa_atexit(ptr nonnull @_ZNSt3__18ios_base4InitD1Ev, ptr nonnull @_ZL9_Ios_init, ptr nonnull @__dso_handle) #28
  ret void
}

declare void @_ZNSt3__18ios_base4InitC1Ev(ptr noundef nonnull align 1 dereferenceable(1)) unnamed_addr #3

; Function Attrs: nounwind
declare void @_ZNSt3__18ios_base4InitD1Ev(ptr noundef nonnull align 1 dereferenceable(1)) unnamed_addr #4

; Function Attrs: nofree nounwind
declare i32 @__cxa_atexit(ptr, ptr, ptr) local_unnamed_addr #5

; Function Attrs: mustprogress
define hidden void @_ZN8VtcmPoolC2Ev(ptr noundef nonnull align 4 dereferenceable(40) %this) unnamed_addr #6 align 2 personality ptr @__gxx_personality_v0 {
entry:
  %resInfo = alloca %struct.compute_res_attr_t, align 8
  %availBlockSize = alloca i32, align 4
  %totalBlockLayout = alloca %struct.compute_res_vtcm_page_t, align 4
  %availBlockLayout = alloca %struct.compute_res_vtcm_page_t, align 4
  %oss = alloca %"class.std::__1::basic_ostringstream", align 4
  %ref.tmp = alloca %"class.std::__1::basic_string", align 4
  %oss77 = alloca %"class.std::__1::basic_ostringstream", align 4
  %ref.tmp83 = alloca %"class.std::__1::basic_string", align 4
  %oss116 = alloca %"class.std::__1::basic_ostringstream", align 4
  %ref.tmp122 = alloca %"class.std::__1::basic_string", align 4
  %oss135 = alloca %"class.std::__1::basic_ostringstream", align 4
  %ref.tmp141 = alloca %"class.std::__1::basic_string", align 4
  %contextId_ = getelementptr inbounds i8, ptr %this, i32 12
  %free_ = getelementptr inbounds i8, ptr %this, i32 28
  %__end_.i200 = getelementptr inbounds i8, ptr %this, i32 32
  %__end_cap_.i201 = getelementptr inbounds i8, ptr %this, i32 36
  tail call void @llvm.memset.p0.i64(ptr noundef nonnull align 4 dereferenceable(28) %contextId_, i8 0, i64 28, i1 false)
  call void @llvm.lifetime.start.p0(ptr %resInfo)
  %tobool.not.i = icmp eq ptr @compute_resource_attr_init_v2, null
  br i1 %tobool.not.i, label %if.end4.i, label %if.then.i

if.then.i:                                        ; preds = %entry
  %call.i202 = invoke i32 @compute_resource_attr_init_v2(ptr noundef nonnull %resInfo, i32 noundef 160, i32 noundef 768)
          to label %call.i.noexc unwind label %lpad

call.i.noexc:                                     ; preds = %if.then.i
  %cmp.i = icmp ne i32 %call.i202, 0
  %tobool1.i = icmp ne ptr @compute_resource_attr_init, null
  %or.cond.i = and i1 %tobool1.i, %cmp.i
  br i1 %or.cond.i, label %cleanup.sink.split.i, label %invoke.cont

if.end4.i:                                        ; preds = %entry
  %tobool5.not.i = icmp eq ptr @compute_resource_attr_init, null
  br i1 %tobool5.not.i, label %do.body2, label %cleanup.sink.split.i

cleanup.sink.split.i:                             ; preds = %if.end4.i, %call.i.noexc
  %call3.i203 = invoke i32 @compute_resource_attr_init(ptr noundef nonnull %resInfo)
          to label %invoke.cont unwind label %lpad

invoke.cont:                                      ; preds = %call.i.noexc, %cleanup.sink.split.i
  %retval.0.i = phi i32 [ %call.i202, %call.i.noexc ], [ %call3.i203, %cleanup.sink.split.i ]
  %cmp.not = icmp eq i32 %retval.0.i, 0
  br i1 %cmp.not, label %if.end7, label %do.body2

do.body2:                                         ; preds = %if.end4.i, %invoke.cont
  %retval.0.i341 = phi i32 [ %retval.0.i, %invoke.cont ], [ -2147482620, %if.end4.i ]
  %cmp3 = icmp eq ptr null, @HAP_debug_v2
  br i1 %cmp3, label %if.then4, label %if.else

if.then4:                                         ; preds = %do.body2
  invoke void (i32, ptr, i32, ptr, ...) @_ZL13_HAP_debug_v2iPKciS0_z(i32 poison, ptr nonnull poison, i32 noundef 16, ptr noundef nonnull @.str.1, i32 noundef %retval.0.i341)
          to label %abort.noreturn unwind label %lpad

lpad:                                             ; preds = %cleanup.sink.split.i, %if.then.i, %if.else, %if.then4
  %0 = landingpad { ptr, i32 }
          cleanup
  br label %ehcleanup165

if.else:                                          ; preds = %do.body2
  invoke void (i32, ptr, i32, ptr, ...) @HAP_debug_v2(i32 noundef 3, ptr noundef nonnull @.str, i32 noundef 16, ptr noundef nonnull @.str.1, i32 noundef %retval.0.i341)
          to label %abort.noreturn unwind label %lpad

if.end7:                                          ; preds = %invoke.cont
  call void @llvm.lifetime.start.p0(ptr %availBlockSize)
  call void @llvm.lifetime.start.p0(ptr %totalBlockLayout)
  call void @llvm.lifetime.start.p0(ptr %availBlockLayout)
  %call14 = invoke i32 @compute_resource_query_VTCM(i32 noundef 0, ptr noundef nonnull %this, ptr noundef nonnull %totalBlockLayout, ptr noundef nonnull %availBlockSize, ptr noundef nonnull %availBlockLayout)
          to label %invoke.cont13 unwind label %lpad12

invoke.cont13:                                    ; preds = %if.end7
  %cmp15.not = icmp eq i32 %call14, 0
  br i1 %cmp15.not, label %for.cond.preheader, label %do.body17

for.cond.preheader:                               ; preds = %invoke.cont13
  %page_list_len = getelementptr inbounds i8, ptr %totalBlockLayout, i32 4
  %1 = load i32, ptr %page_list_len, align 4, !tbaa !179
  %cmp29350.not = icmp eq i32 %1, 0
  br i1 %cmp29350.not, label %for.cond.cleanup, label %for.body

do.body17:                                        ; preds = %invoke.cont13
  %cmp18 = icmp eq ptr null, @HAP_debug_v2
  br i1 %cmp18, label %if.then19, label %if.else21

if.then19:                                        ; preds = %do.body17
  invoke void (i32, ptr, i32, ptr, ...) @_ZL13_HAP_debug_v2iPKciS0_z(i32 poison, ptr nonnull poison, i32 noundef 25, ptr noundef nonnull @.str.2, i32 noundef %call14)
          to label %abort.noreturn unwind label %lpad12

lpad12:                                           ; preds = %if.else21, %if.then19, %if.end7
  %2 = landingpad { ptr, i32 }
          cleanup
  br label %ehcleanup161

if.else21:                                        ; preds = %do.body17
  invoke void (i32, ptr, i32, ptr, ...) @HAP_debug_v2(i32 noundef 3, ptr noundef nonnull @.str, i32 noundef 25, ptr noundef nonnull @.str.2, i32 noundef %call14)
          to label %abort.noreturn unwind label %lpad12

for.cond.cleanup:                                 ; preds = %for.body, %for.cond.preheader
  %pageSize.0.lcssa = phi i32 [ 0, %for.cond.preheader ], [ %spec.select, %for.body ]
  %3 = load i32, ptr %availBlockSize, align 4, !tbaa !184
  %cmp36 = icmp ugt i32 %3, 1048575
  br i1 %cmp36, label %do.body50, label %if.then37

for.body:                                         ; preds = %for.cond.preheader, %for.body
  %totalBlockLayout.pn = phi ptr [ %arrayidx.phi, %for.body ], [ %totalBlockLayout, %for.cond.preheader ]
  %i.0352 = phi i32 [ %inc, %for.body ], [ 0, %for.cond.preheader ]
  %pageSize.0351 = phi i32 [ %spec.select, %for.body ], [ 0, %for.cond.preheader ]
  %arrayidx.phi = getelementptr i8, ptr %totalBlockLayout.pn, i32 8
  %4 = load i32, ptr %arrayidx.phi, align 4, !tbaa !185
  %spec.select = call i32 @llvm.umax.i32(i32 %pageSize.0351, i32 %4)
  %inc = add nuw nsw i32 %i.0352, 1
  %exitcond.not = icmp eq i32 %inc, %1
  br i1 %exitcond.not, label %for.cond.cleanup, label %for.body, !llvm.loop !187

if.then37:                                        ; preds = %for.cond.cleanup
  call void @llvm.lifetime.start.p0(ptr %oss)
  invoke void @_ZNSt3__119basic_ostringstreamIcNS_11char_traitsIcEENS_9allocatorIcEEEC1B8ne190000Ev(ptr noundef nonnull align 4 dereferenceable(56) %oss)
          to label %invoke.cont39 unwind label %lpad38

invoke.cont39:                                    ; preds = %if.then37
  %call1.i204 = invoke noundef nonnull align 4 dereferenceable(4) ptr @_ZNSt3__124__put_character_sequenceB8ne190000IcNS_11char_traitsIcEEEERNS_13basic_ostreamIT_T0_EES7_PKS4_j(ptr noundef nonnull align 4 dereferenceable(4) %oss, ptr noundef nonnull @.str.3, i32 noundef 30)
          to label %invoke.cont41 unwind label %lpad40

invoke.cont41:                                    ; preds = %invoke.cont39
  call void @llvm.lifetime.start.p0(ptr %ref.tmp)
  %__sb_.i = getelementptr inbounds i8, ptr %oss, i32 4
  invoke void @_ZNKSt3__115basic_stringbufIcNS_11char_traitsIcEENS_9allocatorIcEEE3strEv(ptr dead_on_unwind nonnull writable sret(%"class.std::__1::basic_string") align 4 %ref.tmp, ptr noundef nonnull align 4 dereferenceable(52) %__sb_.i)
          to label %invoke.cont44 unwind label %lpad43

invoke.cont44:                                    ; preds = %invoke.cont41
  invoke void @_Z11CheckFailedPKcS0_iRKNSt3__112basic_stringIcNS1_11char_traitsIcEENS1_9allocatorIcEEEE(ptr noundef nonnull @.str.4, ptr noundef nonnull @.str, i32 noundef 34, ptr noundef nonnull align 4 dereferenceable(12) %ref.tmp)
          to label %invoke.cont46 unwind label %lpad45

invoke.cont46:                                    ; preds = %invoke.cont44
  %bf.load.i.i = load i8, ptr %ref.tmp, align 4
  %bf.clear.i.i = and i8 %bf.load.i.i, 1
  %tobool.i.not.i = icmp eq i8 %bf.clear.i.i, 0
  br i1 %tobool.i.not.i, label %_ZNSt3__112basic_stringIcNS_11char_traitsIcEENS_9allocatorIcEEED2Ev.exit, label %if.then.i205

if.then.i205:                                     ; preds = %invoke.cont46
  %__data_.i.i = getelementptr inbounds i8, ptr %ref.tmp, i32 8
  %5 = load ptr, ptr %__data_.i.i, align 4, !tbaa !189
  %bf.load.i5.i = load i32, ptr %ref.tmp, align 4
  %bf.lshr.i.i = and i32 %bf.load.i5.i, -2
  call void @_ZdlPvj(ptr noundef %5, i32 noundef %bf.lshr.i.i) #29
  br label %_ZNSt3__112basic_stringIcNS_11char_traitsIcEENS_9allocatorIcEEED2Ev.exit

_ZNSt3__112basic_stringIcNS_11char_traitsIcEENS_9allocatorIcEEED2Ev.exit: ; preds = %invoke.cont46, %if.then.i205
  call void @llvm.lifetime.end.p0(ptr %ref.tmp)
  %6 = load ptr, ptr @_ZTTNSt3__119basic_ostringstreamIcNS_11char_traitsIcEENS_9allocatorIcEEEE, align 4
  store ptr %6, ptr %oss, align 4, !tbaa !190
  %7 = load ptr, ptr getelementptr inbounds (i8, ptr @_ZTTNSt3__119basic_ostringstreamIcNS_11char_traitsIcEENS_9allocatorIcEEEE, i32 12), align 4
  %vbase.offset.ptr.i.i = getelementptr i8, ptr %6, i32 -12
  %vbase.offset.i.i = load i32, ptr %vbase.offset.ptr.i.i, align 4
  %add.ptr.i.i = getelementptr inbounds i8, ptr %oss, i32 %vbase.offset.i.i
  store ptr %7, ptr %add.ptr.i.i, align 4, !tbaa !190
  store ptr getelementptr inbounds inrange(-8, 56) (i8, ptr @_ZTVNSt3__115basic_stringbufIcNS_11char_traitsIcEENS_9allocatorIcEEEE, i32 8), ptr %__sb_.i, align 4, !tbaa !190
  %__str_.i.i.i = getelementptr inbounds i8, ptr %oss, i32 36
  %bf.load.i.i.i.i.i = load i8, ptr %__str_.i.i.i, align 4
  %bf.clear.i.i.i.i.i = and i8 %bf.load.i.i.i.i.i, 1
  %tobool.i.not.i.i.i.i = icmp eq i8 %bf.clear.i.i.i.i.i, 0
  br i1 %tobool.i.not.i.i.i.i, label %_ZNSt3__119basic_ostringstreamIcNS_11char_traitsIcEENS_9allocatorIcEEED1Ev.exit, label %if.then.i.i.i.i

if.then.i.i.i.i:                                  ; preds = %_ZNSt3__112basic_stringIcNS_11char_traitsIcEENS_9allocatorIcEEED2Ev.exit
  %__data_.i.i.i.i.i = getelementptr inbounds i8, ptr %oss, i32 44
  %8 = load ptr, ptr %__data_.i.i.i.i.i, align 4, !tbaa !189
  %bf.load.i5.i.i.i.i = load i32, ptr %__str_.i.i.i, align 4
  %bf.lshr.i.i.i.i.i = and i32 %bf.load.i5.i.i.i.i, -2
  call void @_ZdlPvj(ptr noundef %8, i32 noundef %bf.lshr.i.i.i.i.i) #29
  br label %_ZNSt3__119basic_ostringstreamIcNS_11char_traitsIcEENS_9allocatorIcEEED1Ev.exit

_ZNSt3__119basic_ostringstreamIcNS_11char_traitsIcEENS_9allocatorIcEEED1Ev.exit: ; preds = %_ZNSt3__112basic_stringIcNS_11char_traitsIcEENS_9allocatorIcEEED2Ev.exit, %if.then.i.i.i.i
  call void @_ZNSt3__115basic_streambufIcNS_11char_traitsIcEEED2Ev(ptr noundef nonnull align 4 dereferenceable(32) %__sb_.i) #28
  call void @_ZNSt3__113basic_ostreamIcNS_11char_traitsIcEEED2Ev(ptr noundef nonnull align 4 dereferenceable(4) %oss, ptr noundef nonnull getelementptr inbounds (i8, ptr @_ZTTNSt3__119basic_ostringstreamIcNS_11char_traitsIcEENS_9allocatorIcEEEE, i32 4)) #28
  %9 = getelementptr inbounds i8, ptr %oss, i32 56
  call void @_ZNSt3__19basic_iosIcNS_11char_traitsIcEEED2Ev(ptr noundef nonnull align 4 dereferenceable(80) %9) #28
  call void @llvm.lifetime.end.p0(ptr %oss)
  br label %do.body50

lpad38:                                           ; preds = %if.then37
  %10 = landingpad { ptr, i32 }
          cleanup
  br label %ehcleanup48

lpad40:                                           ; preds = %invoke.cont39
  %11 = landingpad { ptr, i32 }
          cleanup
  br label %ehcleanup47

lpad43:                                           ; preds = %invoke.cont41
  %12 = landingpad { ptr, i32 }
          cleanup
  br label %ehcleanup

lpad45:                                           ; preds = %invoke.cont44
  %13 = landingpad { ptr, i32 }
          cleanup
  %bf.load.i.i206 = load i8, ptr %ref.tmp, align 4
  %bf.clear.i.i207 = and i8 %bf.load.i.i206, 1
  %tobool.i.not.i208 = icmp eq i8 %bf.clear.i.i207, 0
  br i1 %tobool.i.not.i208, label %ehcleanup, label %if.then.i209

if.then.i209:                                     ; preds = %lpad45
  %__data_.i.i210 = getelementptr inbounds i8, ptr %ref.tmp, i32 8
  %14 = load ptr, ptr %__data_.i.i210, align 4, !tbaa !189
  %bf.load.i5.i211 = load i32, ptr %ref.tmp, align 4
  %bf.lshr.i.i212 = and i32 %bf.load.i5.i211, -2
  call void @_ZdlPvj(ptr noundef %14, i32 noundef %bf.lshr.i.i212) #29
  br label %ehcleanup

ehcleanup:                                        ; preds = %if.then.i209, %lpad45, %lpad43
  %.pn = phi { ptr, i32 } [ %12, %lpad43 ], [ %13, %lpad45 ], [ %13, %if.then.i209 ]
  call void @llvm.lifetime.end.p0(ptr %ref.tmp)
  br label %ehcleanup47

ehcleanup47:                                      ; preds = %ehcleanup, %lpad40
  %.pn.pn = phi { ptr, i32 } [ %.pn, %ehcleanup ], [ %11, %lpad40 ]
  call void @_ZNSt3__119basic_ostringstreamIcNS_11char_traitsIcEENS_9allocatorIcEEED1Ev(ptr noundef nonnull align 4 dereferenceable(56) %oss) #28
  br label %ehcleanup48

ehcleanup48:                                      ; preds = %ehcleanup47, %lpad38
  %.pn.pn.pn = phi { ptr, i32 } [ %.pn.pn, %ehcleanup47 ], [ %10, %lpad38 ]
  call void @llvm.lifetime.end.p0(ptr %oss)
  br label %ehcleanup161

do.body50:                                        ; preds = %for.cond.cleanup, %_ZNSt3__119basic_ostringstreamIcNS_11char_traitsIcEENS_9allocatorIcEEED1Ev.exit
  %tobool.not.i214 = icmp eq ptr @compute_resource_attr_set_vtcm_param_v2, null
  br i1 %tobool.not.i214, label %do.body58, label %if.then.i215

if.then.i215:                                     ; preds = %do.body50
  %15 = load i32, ptr %availBlockSize, align 4, !tbaa !184
  %16 = load i32, ptr %this, align 4, !tbaa !192
  %call.i218 = invoke i32 @compute_resource_attr_set_vtcm_param_v2(ptr noundef nonnull %resInfo, i32 noundef %16, i32 noundef %pageSize.0.lcssa, i32 noundef %15)
          to label %invoke.cont54 unwind label %lpad53

invoke.cont54:                                    ; preds = %if.then.i215
  %cmp56.not = icmp eq i32 %call.i218, 0
  br i1 %cmp56.not, label %if.end67, label %do.body58

do.body58:                                        ; preds = %do.body50, %invoke.cont54
  %retval.0.i216344 = phi i32 [ %call.i218, %invoke.cont54 ], [ -2147482620, %do.body50 ]
  %cmp59 = icmp eq ptr null, @HAP_debug_v2
  br i1 %cmp59, label %if.then60, label %if.else62

if.then60:                                        ; preds = %do.body58
  invoke void (i32, ptr, i32, ptr, ...) @_ZL13_HAP_debug_v2iPKciS0_z(i32 poison, ptr nonnull poison, i32 noundef 41, ptr noundef nonnull @.str.5, i32 noundef %retval.0.i216344)
          to label %abort.noreturn unwind label %lpad53

lpad53:                                           ; preds = %if.then.i215, %if.else62, %if.then60
  %17 = landingpad { ptr, i32 }
          cleanup
  br label %ehcleanup161

if.else62:                                        ; preds = %do.body58
  invoke void (i32, ptr, i32, ptr, ...) @HAP_debug_v2(i32 noundef 3, ptr noundef nonnull @.str, i32 noundef 41, ptr noundef nonnull @.str.5, i32 noundef %retval.0.i216344)
          to label %abort.noreturn unwind label %lpad53

if.end67:                                         ; preds = %invoke.cont54
  %tobool.not.i219 = icmp eq ptr @compute_resource_acquire, null
  br i1 %tobool.not.i219, label %invoke.cont72.thread, label %if.then.i220

invoke.cont72.thread:                             ; preds = %if.end67
  store i32 0, ptr %contextId_, align 4, !tbaa !198
  br label %if.then76

if.then.i220:                                     ; preds = %if.end67
  %call.i223 = invoke i32 @compute_resource_acquire(ptr noundef nonnull %resInfo, i32 noundef 0)
          to label %invoke.cont72 unwind label %lpad71

invoke.cont72:                                    ; preds = %if.then.i220
  store i32 %call.i223, ptr %contextId_, align 4, !tbaa !198
  %tobool.not = icmp eq i32 %call.i223, 0
  br i1 %tobool.not, label %if.then76, label %do.body93

if.then76:                                        ; preds = %invoke.cont72.thread, %invoke.cont72
  call void @llvm.lifetime.start.p0(ptr %oss77)
  invoke void @_ZNSt3__119basic_ostringstreamIcNS_11char_traitsIcEENS_9allocatorIcEEEC1B8ne190000Ev(ptr noundef nonnull align 4 dereferenceable(56) %oss77)
          to label %invoke.cont79 unwind label %lpad78

invoke.cont79:                                    ; preds = %if.then76
  %call1.i225 = invoke noundef nonnull align 4 dereferenceable(4) ptr @_ZNSt3__124__put_character_sequenceB8ne190000IcNS_11char_traitsIcEEEERNS_13basic_ostreamIT_T0_EES7_PKS4_j(ptr noundef nonnull align 4 dereferenceable(4) %oss77, ptr noundef nonnull @.str.6, i32 noundef 67)
          to label %invoke.cont81 unwind label %lpad80

invoke.cont81:                                    ; preds = %invoke.cont79
  call void @llvm.lifetime.start.p0(ptr %ref.tmp83)
  %__sb_.i227 = getelementptr inbounds i8, ptr %oss77, i32 4
  invoke void @_ZNKSt3__115basic_stringbufIcNS_11char_traitsIcEENS_9allocatorIcEEE3strEv(ptr dead_on_unwind nonnull writable sret(%"class.std::__1::basic_string") align 4 %ref.tmp83, ptr noundef nonnull align 4 dereferenceable(52) %__sb_.i227)
          to label %invoke.cont85 unwind label %lpad84

invoke.cont85:                                    ; preds = %invoke.cont81
  invoke void @_Z11CheckFailedPKcS0_iRKNSt3__112basic_stringIcNS1_11char_traitsIcEENS1_9allocatorIcEEEE(ptr noundef nonnull @.str.7, ptr noundef nonnull @.str, i32 noundef 47, ptr noundef nonnull align 4 dereferenceable(12) %ref.tmp83)
          to label %invoke.cont87 unwind label %lpad86

invoke.cont87:                                    ; preds = %invoke.cont85
  %bf.load.i.i229 = load i8, ptr %ref.tmp83, align 4
  %bf.clear.i.i230 = and i8 %bf.load.i.i229, 1
  %tobool.i.not.i231 = icmp eq i8 %bf.clear.i.i230, 0
  br i1 %tobool.i.not.i231, label %_ZNSt3__112basic_stringIcNS_11char_traitsIcEENS_9allocatorIcEEED2Ev.exit236, label %if.then.i232

if.then.i232:                                     ; preds = %invoke.cont87
  %__data_.i.i233 = getelementptr inbounds i8, ptr %ref.tmp83, i32 8
  %18 = load ptr, ptr %__data_.i.i233, align 4, !tbaa !189
  %bf.load.i5.i234 = load i32, ptr %ref.tmp83, align 4
  %bf.lshr.i.i235 = and i32 %bf.load.i5.i234, -2
  call void @_ZdlPvj(ptr noundef %18, i32 noundef %bf.lshr.i.i235) #29
  br label %_ZNSt3__112basic_stringIcNS_11char_traitsIcEENS_9allocatorIcEEED2Ev.exit236

_ZNSt3__112basic_stringIcNS_11char_traitsIcEENS_9allocatorIcEEED2Ev.exit236: ; preds = %invoke.cont87, %if.then.i232
  call void @llvm.lifetime.end.p0(ptr %ref.tmp83)
  %19 = load ptr, ptr @_ZTTNSt3__119basic_ostringstreamIcNS_11char_traitsIcEENS_9allocatorIcEEEE, align 4
  store ptr %19, ptr %oss77, align 4, !tbaa !190
  %20 = load ptr, ptr getelementptr inbounds (i8, ptr @_ZTTNSt3__119basic_ostringstreamIcNS_11char_traitsIcEENS_9allocatorIcEEEE, i32 12), align 4
  %vbase.offset.ptr.i.i237 = getelementptr i8, ptr %19, i32 -12
  %vbase.offset.i.i238 = load i32, ptr %vbase.offset.ptr.i.i237, align 4
  %add.ptr.i.i239 = getelementptr inbounds i8, ptr %oss77, i32 %vbase.offset.i.i238
  store ptr %20, ptr %add.ptr.i.i239, align 4, !tbaa !190
  store ptr getelementptr inbounds inrange(-8, 56) (i8, ptr @_ZTVNSt3__115basic_stringbufIcNS_11char_traitsIcEENS_9allocatorIcEEEE, i32 8), ptr %__sb_.i227, align 4, !tbaa !190
  %__str_.i.i.i241 = getelementptr inbounds i8, ptr %oss77, i32 36
  %bf.load.i.i.i.i.i242 = load i8, ptr %__str_.i.i.i241, align 4
  %bf.clear.i.i.i.i.i243 = and i8 %bf.load.i.i.i.i.i242, 1
  %tobool.i.not.i.i.i.i244 = icmp eq i8 %bf.clear.i.i.i.i.i243, 0
  br i1 %tobool.i.not.i.i.i.i244, label %_ZNSt3__119basic_ostringstreamIcNS_11char_traitsIcEENS_9allocatorIcEEED1Ev.exit249, label %if.then.i.i.i.i245

if.then.i.i.i.i245:                               ; preds = %_ZNSt3__112basic_stringIcNS_11char_traitsIcEENS_9allocatorIcEEED2Ev.exit236
  %__data_.i.i.i.i.i246 = getelementptr inbounds i8, ptr %oss77, i32 44
  %21 = load ptr, ptr %__data_.i.i.i.i.i246, align 4, !tbaa !189
  %bf.load.i5.i.i.i.i247 = load i32, ptr %__str_.i.i.i241, align 4
  %bf.lshr.i.i.i.i.i248 = and i32 %bf.load.i5.i.i.i.i247, -2
  call void @_ZdlPvj(ptr noundef %21, i32 noundef %bf.lshr.i.i.i.i.i248) #29
  br label %_ZNSt3__119basic_ostringstreamIcNS_11char_traitsIcEENS_9allocatorIcEEED1Ev.exit249

_ZNSt3__119basic_ostringstreamIcNS_11char_traitsIcEENS_9allocatorIcEEED1Ev.exit249: ; preds = %_ZNSt3__112basic_stringIcNS_11char_traitsIcEENS_9allocatorIcEEED2Ev.exit236, %if.then.i.i.i.i245
  call void @_ZNSt3__115basic_streambufIcNS_11char_traitsIcEEED2Ev(ptr noundef nonnull align 4 dereferenceable(32) %__sb_.i227) #28
  call void @_ZNSt3__113basic_ostreamIcNS_11char_traitsIcEEED2Ev(ptr noundef nonnull align 4 dereferenceable(4) %oss77, ptr noundef nonnull getelementptr inbounds (i8, ptr @_ZTTNSt3__119basic_ostringstreamIcNS_11char_traitsIcEENS_9allocatorIcEEEE, i32 4)) #28
  %22 = getelementptr inbounds i8, ptr %oss77, i32 56
  call void @_ZNSt3__19basic_iosIcNS_11char_traitsIcEEED2Ev(ptr noundef nonnull align 4 dereferenceable(80) %22) #28
  call void @llvm.lifetime.end.p0(ptr %oss77)
  br label %do.body93

lpad71:                                           ; preds = %if.then.i220
  %23 = landingpad { ptr, i32 }
          cleanup
  br label %ehcleanup161

lpad78:                                           ; preds = %if.then76
  %24 = landingpad { ptr, i32 }
          cleanup
  br label %ehcleanup91

lpad80:                                           ; preds = %invoke.cont79
  %25 = landingpad { ptr, i32 }
          cleanup
  br label %ehcleanup90

lpad84:                                           ; preds = %invoke.cont81
  %26 = landingpad { ptr, i32 }
          cleanup
  br label %ehcleanup89

lpad86:                                           ; preds = %invoke.cont85
  %27 = landingpad { ptr, i32 }
          cleanup
  %bf.load.i.i250 = load i8, ptr %ref.tmp83, align 4
  %bf.clear.i.i251 = and i8 %bf.load.i.i250, 1
  %tobool.i.not.i252 = icmp eq i8 %bf.clear.i.i251, 0
  br i1 %tobool.i.not.i252, label %ehcleanup89, label %if.then.i253

if.then.i253:                                     ; preds = %lpad86
  %__data_.i.i254 = getelementptr inbounds i8, ptr %ref.tmp83, i32 8
  %28 = load ptr, ptr %__data_.i.i254, align 4, !tbaa !189
  %bf.load.i5.i255 = load i32, ptr %ref.tmp83, align 4
  %bf.lshr.i.i256 = and i32 %bf.load.i5.i255, -2
  call void @_ZdlPvj(ptr noundef %28, i32 noundef %bf.lshr.i.i256) #29
  br label %ehcleanup89

ehcleanup89:                                      ; preds = %if.then.i253, %lpad86, %lpad84
  %.pn184 = phi { ptr, i32 } [ %26, %lpad84 ], [ %27, %lpad86 ], [ %27, %if.then.i253 ]
  call void @llvm.lifetime.end.p0(ptr %ref.tmp83)
  br label %ehcleanup90

ehcleanup90:                                      ; preds = %ehcleanup89, %lpad80
  %.pn184.pn = phi { ptr, i32 } [ %.pn184, %ehcleanup89 ], [ %25, %lpad80 ]
  call void @_ZNSt3__119basic_ostringstreamIcNS_11char_traitsIcEENS_9allocatorIcEEED1Ev(ptr noundef nonnull align 4 dereferenceable(56) %oss77) #28
  br label %ehcleanup91

ehcleanup91:                                      ; preds = %ehcleanup90, %lpad78
  %.pn184.pn.pn = phi { ptr, i32 } [ %.pn184.pn, %ehcleanup90 ], [ %24, %lpad78 ]
  call void @llvm.lifetime.end.p0(ptr %oss77)
  br label %ehcleanup161

do.body93:                                        ; preds = %invoke.cont72, %_ZNSt3__119basic_ostringstreamIcNS_11char_traitsIcEENS_9allocatorIcEEED1Ev.exit249
  %vtcmData_ = getelementptr inbounds i8, ptr %this, i32 8
  %vtcmAllocatedSize_ = getelementptr inbounds i8, ptr %this, i32 4
  %tobool.not.i258 = icmp eq ptr @compute_resource_attr_get_vtcm_ptr_v2, null
  br i1 %tobool.not.i258, label %do.body100, label %if.then.i259

if.then.i259:                                     ; preds = %do.body93
  %call.i262 = invoke i32 @compute_resource_attr_get_vtcm_ptr_v2(ptr noundef nonnull %resInfo, ptr noundef nonnull %vtcmData_, ptr noundef nonnull %vtcmAllocatedSize_)
          to label %invoke.cont96 unwind label %lpad95

invoke.cont96:                                    ; preds = %if.then.i259
  %cmp98.not = icmp eq i32 %call.i262, 0
  br i1 %cmp98.not, label %if.end109, label %do.body100

do.body100:                                       ; preds = %do.body93, %invoke.cont96
  %retval.0.i260349 = phi i32 [ %call.i262, %invoke.cont96 ], [ -2147482620, %do.body93 ]
  %cmp101 = icmp eq ptr null, @HAP_debug_v2
  br i1 %cmp101, label %if.then102, label %if.else104

if.then102:                                       ; preds = %do.body100
  invoke void (i32, ptr, i32, ptr, ...) @_ZL13_HAP_debug_v2iPKciS0_z(i32 poison, ptr nonnull poison, i32 noundef 49, ptr noundef nonnull @.str.8, i32 noundef %retval.0.i260349)
          to label %abort.noreturn unwind label %lpad95

lpad95:                                           ; preds = %if.then.i259, %if.else104, %if.then102
  %29 = landingpad { ptr, i32 }
          cleanup
  br label %ehcleanup161

if.else104:                                       ; preds = %do.body100
  invoke void (i32, ptr, i32, ptr, ...) @HAP_debug_v2(i32 noundef 3, ptr noundef nonnull @.str, i32 noundef 49, ptr noundef nonnull @.str.8, i32 noundef %retval.0.i260349)
          to label %abort.noreturn unwind label %lpad95

abort.noreturn:                                   ; preds = %if.then102, %if.else104, %if.then60, %if.else62, %if.then19, %if.else21, %if.then4, %if.else
  call void @abort() #30
  unreachable

if.end109:                                        ; preds = %invoke.cont96
  %30 = load ptr, ptr %vtcmData_, align 4, !tbaa !199
  %cmp114.not = icmp eq ptr %30, null
  br i1 %cmp114.not, label %if.then115, label %if.end131

if.then115:                                       ; preds = %if.end109
  call void @llvm.lifetime.start.p0(ptr %oss116)
  invoke void @_ZNSt3__119basic_ostringstreamIcNS_11char_traitsIcEENS_9allocatorIcEEEC1B8ne190000Ev(ptr noundef nonnull align 4 dereferenceable(56) %oss116)
          to label %invoke.cont118 unwind label %lpad117

invoke.cont118:                                   ; preds = %if.then115
  %call1.i264 = invoke noundef nonnull align 4 dereferenceable(4) ptr @_ZNSt3__124__put_character_sequenceB8ne190000IcNS_11char_traitsIcEEEERNS_13basic_ostreamIT_T0_EES7_PKS4_j(ptr noundef nonnull align 4 dereferenceable(4) %oss116, ptr noundef nonnull @.str.9, i32 noundef 63)
          to label %invoke.cont120 unwind label %lpad119

invoke.cont120:                                   ; preds = %invoke.cont118
  call void @llvm.lifetime.start.p0(ptr %ref.tmp122)
  %__sb_.i266 = getelementptr inbounds i8, ptr %oss116, i32 4
  invoke void @_ZNKSt3__115basic_stringbufIcNS_11char_traitsIcEENS_9allocatorIcEEE3strEv(ptr dead_on_unwind nonnull writable sret(%"class.std::__1::basic_string") align 4 %ref.tmp122, ptr noundef nonnull align 4 dereferenceable(52) %__sb_.i266)
          to label %invoke.cont124 unwind label %lpad123

invoke.cont124:                                   ; preds = %invoke.cont120
  invoke void @_Z11CheckFailedPKcS0_iRKNSt3__112basic_stringIcNS1_11char_traitsIcEENS1_9allocatorIcEEEE(ptr noundef nonnull @.str.10, ptr noundef nonnull @.str, i32 noundef 51, ptr noundef nonnull align 4 dereferenceable(12) %ref.tmp122)
          to label %invoke.cont126 unwind label %lpad125

invoke.cont126:                                   ; preds = %invoke.cont124
  %bf.load.i.i268 = load i8, ptr %ref.tmp122, align 4
  %bf.clear.i.i269 = and i8 %bf.load.i.i268, 1
  %tobool.i.not.i270 = icmp eq i8 %bf.clear.i.i269, 0
  br i1 %tobool.i.not.i270, label %_ZNSt3__112basic_stringIcNS_11char_traitsIcEENS_9allocatorIcEEED2Ev.exit275, label %if.then.i271

if.then.i271:                                     ; preds = %invoke.cont126
  %__data_.i.i272 = getelementptr inbounds i8, ptr %ref.tmp122, i32 8
  %31 = load ptr, ptr %__data_.i.i272, align 4, !tbaa !189
  %bf.load.i5.i273 = load i32, ptr %ref.tmp122, align 4
  %bf.lshr.i.i274 = and i32 %bf.load.i5.i273, -2
  call void @_ZdlPvj(ptr noundef %31, i32 noundef %bf.lshr.i.i274) #29
  br label %_ZNSt3__112basic_stringIcNS_11char_traitsIcEENS_9allocatorIcEEED2Ev.exit275

_ZNSt3__112basic_stringIcNS_11char_traitsIcEENS_9allocatorIcEEED2Ev.exit275: ; preds = %invoke.cont126, %if.then.i271
  call void @llvm.lifetime.end.p0(ptr %ref.tmp122)
  %32 = load ptr, ptr @_ZTTNSt3__119basic_ostringstreamIcNS_11char_traitsIcEENS_9allocatorIcEEEE, align 4
  store ptr %32, ptr %oss116, align 4, !tbaa !190
  %33 = load ptr, ptr getelementptr inbounds (i8, ptr @_ZTTNSt3__119basic_ostringstreamIcNS_11char_traitsIcEENS_9allocatorIcEEEE, i32 12), align 4
  %vbase.offset.ptr.i.i276 = getelementptr i8, ptr %32, i32 -12
  %vbase.offset.i.i277 = load i32, ptr %vbase.offset.ptr.i.i276, align 4
  %add.ptr.i.i278 = getelementptr inbounds i8, ptr %oss116, i32 %vbase.offset.i.i277
  store ptr %33, ptr %add.ptr.i.i278, align 4, !tbaa !190
  store ptr getelementptr inbounds inrange(-8, 56) (i8, ptr @_ZTVNSt3__115basic_stringbufIcNS_11char_traitsIcEENS_9allocatorIcEEEE, i32 8), ptr %__sb_.i266, align 4, !tbaa !190
  %__str_.i.i.i280 = getelementptr inbounds i8, ptr %oss116, i32 36
  %bf.load.i.i.i.i.i281 = load i8, ptr %__str_.i.i.i280, align 4
  %bf.clear.i.i.i.i.i282 = and i8 %bf.load.i.i.i.i.i281, 1
  %tobool.i.not.i.i.i.i283 = icmp eq i8 %bf.clear.i.i.i.i.i282, 0
  br i1 %tobool.i.not.i.i.i.i283, label %_ZNSt3__119basic_ostringstreamIcNS_11char_traitsIcEENS_9allocatorIcEEED1Ev.exit288, label %if.then.i.i.i.i284

if.then.i.i.i.i284:                               ; preds = %_ZNSt3__112basic_stringIcNS_11char_traitsIcEENS_9allocatorIcEEED2Ev.exit275
  %__data_.i.i.i.i.i285 = getelementptr inbounds i8, ptr %oss116, i32 44
  %34 = load ptr, ptr %__data_.i.i.i.i.i285, align 4, !tbaa !189
  %bf.load.i5.i.i.i.i286 = load i32, ptr %__str_.i.i.i280, align 4
  %bf.lshr.i.i.i.i.i287 = and i32 %bf.load.i5.i.i.i.i286, -2
  call void @_ZdlPvj(ptr noundef %34, i32 noundef %bf.lshr.i.i.i.i.i287) #29
  br label %_ZNSt3__119basic_ostringstreamIcNS_11char_traitsIcEENS_9allocatorIcEEED1Ev.exit288

_ZNSt3__119basic_ostringstreamIcNS_11char_traitsIcEENS_9allocatorIcEEED1Ev.exit288: ; preds = %_ZNSt3__112basic_stringIcNS_11char_traitsIcEENS_9allocatorIcEEED2Ev.exit275, %if.then.i.i.i.i284
  call void @_ZNSt3__115basic_streambufIcNS_11char_traitsIcEEED2Ev(ptr noundef nonnull align 4 dereferenceable(32) %__sb_.i266) #28
  call void @_ZNSt3__113basic_ostreamIcNS_11char_traitsIcEEED2Ev(ptr noundef nonnull align 4 dereferenceable(4) %oss116, ptr noundef nonnull getelementptr inbounds (i8, ptr @_ZTTNSt3__119basic_ostringstreamIcNS_11char_traitsIcEENS_9allocatorIcEEEE, i32 4)) #28
  %35 = getelementptr inbounds i8, ptr %oss116, i32 56
  call void @_ZNSt3__19basic_iosIcNS_11char_traitsIcEEED2Ev(ptr noundef nonnull align 4 dereferenceable(80) %35) #28
  call void @llvm.lifetime.end.p0(ptr %oss116)
  br label %if.end131

lpad117:                                          ; preds = %if.then115
  %36 = landingpad { ptr, i32 }
          cleanup
  br label %ehcleanup130

lpad119:                                          ; preds = %invoke.cont118
  %37 = landingpad { ptr, i32 }
          cleanup
  br label %ehcleanup129

lpad123:                                          ; preds = %invoke.cont120
  %38 = landingpad { ptr, i32 }
          cleanup
  br label %ehcleanup128

lpad125:                                          ; preds = %invoke.cont124
  %39 = landingpad { ptr, i32 }
          cleanup
  %bf.load.i.i289 = load i8, ptr %ref.tmp122, align 4
  %bf.clear.i.i290 = and i8 %bf.load.i.i289, 1
  %tobool.i.not.i291 = icmp eq i8 %bf.clear.i.i290, 0
  br i1 %tobool.i.not.i291, label %ehcleanup128, label %if.then.i292

if.then.i292:                                     ; preds = %lpad125
  %__data_.i.i293 = getelementptr inbounds i8, ptr %ref.tmp122, i32 8
  %40 = load ptr, ptr %__data_.i.i293, align 4, !tbaa !189
  %bf.load.i5.i294 = load i32, ptr %ref.tmp122, align 4
  %bf.lshr.i.i295 = and i32 %bf.load.i5.i294, -2
  call void @_ZdlPvj(ptr noundef %40, i32 noundef %bf.lshr.i.i295) #29
  br label %ehcleanup128

ehcleanup128:                                     ; preds = %if.then.i292, %lpad125, %lpad123
  %.pn188 = phi { ptr, i32 } [ %38, %lpad123 ], [ %39, %lpad125 ], [ %39, %if.then.i292 ]
  call void @llvm.lifetime.end.p0(ptr %ref.tmp122)
  br label %ehcleanup129

ehcleanup129:                                     ; preds = %ehcleanup128, %lpad119
  %.pn188.pn = phi { ptr, i32 } [ %.pn188, %ehcleanup128 ], [ %37, %lpad119 ]
  call void @_ZNSt3__119basic_ostringstreamIcNS_11char_traitsIcEENS_9allocatorIcEEED1Ev(ptr noundef nonnull align 4 dereferenceable(56) %oss116) #28
  br label %ehcleanup130

ehcleanup130:                                     ; preds = %ehcleanup129, %lpad117
  %.pn188.pn.pn = phi { ptr, i32 } [ %.pn188.pn, %ehcleanup129 ], [ %36, %lpad117 ]
  call void @llvm.lifetime.end.p0(ptr %oss116)
  br label %ehcleanup161

if.end131:                                        ; preds = %_ZNSt3__119basic_ostringstreamIcNS_11char_traitsIcEENS_9allocatorIcEEED1Ev.exit288, %if.end109
  %41 = load i32, ptr %vtcmAllocatedSize_, align 4, !tbaa !184
  %42 = load i32, ptr %availBlockSize, align 4, !tbaa !184
  %cmp133.not = icmp ult i32 %41, %42
  br i1 %cmp133.not, label %if.then134, label %if.end150

if.then134:                                       ; preds = %if.end131
  call void @llvm.lifetime.start.p0(ptr %oss135)
  invoke void @_ZNSt3__119basic_ostringstreamIcNS_11char_traitsIcEENS_9allocatorIcEEEC1B8ne190000Ev(ptr noundef nonnull align 4 dereferenceable(56) %oss135)
          to label %invoke.cont137 unwind label %lpad136

invoke.cont137:                                   ; preds = %if.then134
  %call1.i298 = invoke noundef nonnull align 4 dereferenceable(4) ptr @_ZNSt3__124__put_character_sequenceB8ne190000IcNS_11char_traitsIcEEEERNS_13basic_ostreamIT_T0_EES7_PKS4_j(ptr noundef nonnull align 4 dereferenceable(4) %oss135, ptr noundef nonnull @.str.11, i32 noundef 67)
          to label %invoke.cont139 unwind label %lpad138

invoke.cont139:                                   ; preds = %invoke.cont137
  call void @llvm.lifetime.start.p0(ptr %ref.tmp141)
  %__sb_.i300 = getelementptr inbounds i8, ptr %oss135, i32 4
  invoke void @_ZNKSt3__115basic_stringbufIcNS_11char_traitsIcEENS_9allocatorIcEEE3strEv(ptr dead_on_unwind nonnull writable sret(%"class.std::__1::basic_string") align 4 %ref.tmp141, ptr noundef nonnull align 4 dereferenceable(52) %__sb_.i300)
          to label %invoke.cont143 unwind label %lpad142

invoke.cont143:                                   ; preds = %invoke.cont139
  invoke void @_Z11CheckFailedPKcS0_iRKNSt3__112basic_stringIcNS1_11char_traitsIcEENS1_9allocatorIcEEEE(ptr noundef nonnull @.str.12, ptr noundef nonnull @.str, i32 noundef 53, ptr noundef nonnull align 4 dereferenceable(12) %ref.tmp141)
          to label %invoke.cont145 unwind label %lpad144

invoke.cont145:                                   ; preds = %invoke.cont143
  %bf.load.i.i302 = load i8, ptr %ref.tmp141, align 4
  %bf.clear.i.i303 = and i8 %bf.load.i.i302, 1
  %tobool.i.not.i304 = icmp eq i8 %bf.clear.i.i303, 0
  br i1 %tobool.i.not.i304, label %_ZNSt3__112basic_stringIcNS_11char_traitsIcEENS_9allocatorIcEEED2Ev.exit309, label %if.then.i305

if.then.i305:                                     ; preds = %invoke.cont145
  %__data_.i.i306 = getelementptr inbounds i8, ptr %ref.tmp141, i32 8
  %43 = load ptr, ptr %__data_.i.i306, align 4, !tbaa !189
  %bf.load.i5.i307 = load i32, ptr %ref.tmp141, align 4
  %bf.lshr.i.i308 = and i32 %bf.load.i5.i307, -2
  call void @_ZdlPvj(ptr noundef %43, i32 noundef %bf.lshr.i.i308) #29
  br label %_ZNSt3__112basic_stringIcNS_11char_traitsIcEENS_9allocatorIcEEED2Ev.exit309

_ZNSt3__112basic_stringIcNS_11char_traitsIcEENS_9allocatorIcEEED2Ev.exit309: ; preds = %invoke.cont145, %if.then.i305
  call void @llvm.lifetime.end.p0(ptr %ref.tmp141)
  %44 = load ptr, ptr @_ZTTNSt3__119basic_ostringstreamIcNS_11char_traitsIcEENS_9allocatorIcEEEE, align 4
  store ptr %44, ptr %oss135, align 4, !tbaa !190
  %45 = load ptr, ptr getelementptr inbounds (i8, ptr @_ZTTNSt3__119basic_ostringstreamIcNS_11char_traitsIcEENS_9allocatorIcEEEE, i32 12), align 4
  %vbase.offset.ptr.i.i310 = getelementptr i8, ptr %44, i32 -12
  %vbase.offset.i.i311 = load i32, ptr %vbase.offset.ptr.i.i310, align 4
  %add.ptr.i.i312 = getelementptr inbounds i8, ptr %oss135, i32 %vbase.offset.i.i311
  store ptr %45, ptr %add.ptr.i.i312, align 4, !tbaa !190
  store ptr getelementptr inbounds inrange(-8, 56) (i8, ptr @_ZTVNSt3__115basic_stringbufIcNS_11char_traitsIcEENS_9allocatorIcEEEE, i32 8), ptr %__sb_.i300, align 4, !tbaa !190
  %__str_.i.i.i314 = getelementptr inbounds i8, ptr %oss135, i32 36
  %bf.load.i.i.i.i.i315 = load i8, ptr %__str_.i.i.i314, align 4
  %bf.clear.i.i.i.i.i316 = and i8 %bf.load.i.i.i.i.i315, 1
  %tobool.i.not.i.i.i.i317 = icmp eq i8 %bf.clear.i.i.i.i.i316, 0
  br i1 %tobool.i.not.i.i.i.i317, label %_ZNSt3__119basic_ostringstreamIcNS_11char_traitsIcEENS_9allocatorIcEEED1Ev.exit322, label %if.then.i.i.i.i318

if.then.i.i.i.i318:                               ; preds = %_ZNSt3__112basic_stringIcNS_11char_traitsIcEENS_9allocatorIcEEED2Ev.exit309
  %__data_.i.i.i.i.i319 = getelementptr inbounds i8, ptr %oss135, i32 44
  %46 = load ptr, ptr %__data_.i.i.i.i.i319, align 4, !tbaa !189
  %bf.load.i5.i.i.i.i320 = load i32, ptr %__str_.i.i.i314, align 4
  %bf.lshr.i.i.i.i.i321 = and i32 %bf.load.i5.i.i.i.i320, -2
  call void @_ZdlPvj(ptr noundef %46, i32 noundef %bf.lshr.i.i.i.i.i321) #29
  br label %_ZNSt3__119basic_ostringstreamIcNS_11char_traitsIcEENS_9allocatorIcEEED1Ev.exit322

_ZNSt3__119basic_ostringstreamIcNS_11char_traitsIcEENS_9allocatorIcEEED1Ev.exit322: ; preds = %_ZNSt3__112basic_stringIcNS_11char_traitsIcEENS_9allocatorIcEEED2Ev.exit309, %if.then.i.i.i.i318
  call void @_ZNSt3__115basic_streambufIcNS_11char_traitsIcEEED2Ev(ptr noundef nonnull align 4 dereferenceable(32) %__sb_.i300) #28
  call void @_ZNSt3__113basic_ostreamIcNS_11char_traitsIcEEED2Ev(ptr noundef nonnull align 4 dereferenceable(4) %oss135, ptr noundef nonnull getelementptr inbounds (i8, ptr @_ZTTNSt3__119basic_ostringstreamIcNS_11char_traitsIcEENS_9allocatorIcEEEE, i32 4)) #28
  %47 = getelementptr inbounds i8, ptr %oss135, i32 56
  call void @_ZNSt3__19basic_iosIcNS_11char_traitsIcEEED2Ev(ptr noundef nonnull align 4 dereferenceable(80) %47) #28
  call void @llvm.lifetime.end.p0(ptr %oss135)
  %.pre = load i32, ptr %vtcmAllocatedSize_, align 4, !tbaa !184
  br label %if.end150

lpad136:                                          ; preds = %if.then134
  %48 = landingpad { ptr, i32 }
          cleanup
  br label %ehcleanup149

lpad138:                                          ; preds = %invoke.cont137
  %49 = landingpad { ptr, i32 }
          cleanup
  br label %ehcleanup148

lpad142:                                          ; preds = %invoke.cont139
  %50 = landingpad { ptr, i32 }
          cleanup
  br label %ehcleanup147

lpad144:                                          ; preds = %invoke.cont143
  %51 = landingpad { ptr, i32 }
          cleanup
  %bf.load.i.i323 = load i8, ptr %ref.tmp141, align 4
  %bf.clear.i.i324 = and i8 %bf.load.i.i323, 1
  %tobool.i.not.i325 = icmp eq i8 %bf.clear.i.i324, 0
  br i1 %tobool.i.not.i325, label %ehcleanup147, label %if.then.i326

if.then.i326:                                     ; preds = %lpad144
  %__data_.i.i327 = getelementptr inbounds i8, ptr %ref.tmp141, i32 8
  %52 = load ptr, ptr %__data_.i.i327, align 4, !tbaa !189
  %bf.load.i5.i328 = load i32, ptr %ref.tmp141, align 4
  %bf.lshr.i.i329 = and i32 %bf.load.i5.i328, -2
  call void @_ZdlPvj(ptr noundef %52, i32 noundef %bf.lshr.i.i329) #29
  br label %ehcleanup147

ehcleanup147:                                     ; preds = %if.then.i326, %lpad144, %lpad142
  %.pn192 = phi { ptr, i32 } [ %50, %lpad142 ], [ %51, %lpad144 ], [ %51, %if.then.i326 ]
  call void @llvm.lifetime.end.p0(ptr %ref.tmp141)
  br label %ehcleanup148

ehcleanup148:                                     ; preds = %ehcleanup147, %lpad138
  %.pn192.pn = phi { ptr, i32 } [ %.pn192, %ehcleanup147 ], [ %49, %lpad138 ]
  call void @_ZNSt3__119basic_ostringstreamIcNS_11char_traitsIcEENS_9allocatorIcEEED1Ev(ptr noundef nonnull align 4 dereferenceable(56) %oss135) #28
  br label %ehcleanup149

ehcleanup149:                                     ; preds = %ehcleanup148, %lpad136
  %.pn192.pn.pn = phi { ptr, i32 } [ %.pn192.pn, %ehcleanup148 ], [ %48, %lpad136 ]
  call void @llvm.lifetime.end.p0(ptr %oss135)
  br label %ehcleanup161

if.end150:                                        ; preds = %_ZNSt3__119basic_ostringstreamIcNS_11char_traitsIcEENS_9allocatorIcEEED1Ev.exit322, %if.end131
  %53 = phi i32 [ %.pre, %_ZNSt3__119basic_ostringstreamIcNS_11char_traitsIcEENS_9allocatorIcEEED1Ev.exit322 ], [ %41, %if.end131 ]
  %54 = load ptr, ptr %vtcmData_, align 4, !tbaa !199
  %55 = load ptr, ptr %__end_.i200, align 4, !tbaa !200
  %56 = load ptr, ptr %__end_cap_.i201, align 4, !tbaa !201
  %cmp.i332 = icmp ult ptr %55, %56
  br i1 %cmp.i332, label %if.then.i333, label %if.else.i

if.then.i333:                                     ; preds = %if.end150
  %57 = ptrtoint ptr %54 to i32
  store i32 %57, ptr %55, align 4
  %.sroa_idx = getelementptr inbounds i8, ptr %55, i32 4
  store i32 %53, ptr %.sroa_idx, align 4
  %incdec.ptr.i.i = getelementptr inbounds i8, ptr %55, i32 8
  br label %_ZNSt3__16vectorINS_4pairIPcjEENS_9allocatorIS3_EEE12emplace_backIJS3_EEERS3_DpOT_.exit

if.else.i:                                        ; preds = %if.end150
  %58 = load ptr, ptr %free_, align 4, !tbaa !201
  %sub.ptr.lhs.cast.i.i.i = ptrtoint ptr %55 to i32
  %sub.ptr.rhs.cast.i.i.i = ptrtoint ptr %58 to i32
  %sub.ptr.sub.i.i.i = sub i32 %sub.ptr.lhs.cast.i.i.i, %sub.ptr.rhs.cast.i.i.i
  %sub.ptr.div.i.i.i = ashr exact i32 %sub.ptr.sub.i.i.i, 3
  %add.i.i = add nsw i32 %sub.ptr.div.i.i.i, 1
  %cmp.i.i.i = icmp ugt i32 %add.i.i, 536870911
  br i1 %cmp.i.i.i, label %if.then.i.i.i, label %_ZNKSt3__16vectorINS_4pairIPcjEENS_9allocatorIS3_EEE11__recommendB8ne190000Ej.exit.i.i

if.then.i.i.i:                                    ; preds = %if.else.i
  invoke void @_ZNKSt3__16vectorINS_4pairIPcjEENS_9allocatorIS3_EEE20__throw_length_errorB8ne190000Ev(ptr noundef nonnull align 4 dereferenceable(12) %free_) #31
          to label %.noexc unwind label %lpad156

.noexc:                                           ; preds = %if.then.i.i.i
  unreachable

_ZNKSt3__16vectorINS_4pairIPcjEENS_9allocatorIS3_EEE11__recommendB8ne190000Ej.exit.i.i: ; preds = %if.else.i
  %sub.ptr.lhs.cast.i.i.i.i = ptrtoint ptr %56 to i32
  %sub.ptr.sub.i.i.i.i = sub i32 %sub.ptr.lhs.cast.i.i.i.i, %sub.ptr.rhs.cast.i.i.i
  %cmp3.not.i.i.i = icmp ult i32 %sub.ptr.sub.i.i.i.i, 2147483640
  %mul.i.i.i = lshr exact i32 %sub.ptr.sub.i.i.i.i, 2
  %59 = call i32 @llvm.umax.i32(i32 %mul.i.i.i, i32 %add.i.i)
  %retval.0.i.i.i = select i1 %cmp3.not.i.i.i, i32 %59, i32 536870911
  %cmp.i17.i.i = icmp eq i32 %retval.0.i.i.i, 0
  br i1 %cmp.i17.i.i, label %_ZNSt3__114__split_bufferINS_4pairIPcjEERNS_9allocatorIS3_EEE17__destruct_at_endB8ne190000EPS3_.exit.i.i.i, label %if.else.i.i.i

if.else.i.i.i:                                    ; preds = %_ZNKSt3__16vectorINS_4pairIPcjEENS_9allocatorIS3_EEE11__recommendB8ne190000Ej.exit.i.i
  %cmp.i.i.i.i.i = icmp ugt i32 %retval.0.i.i.i, 536870911
  br i1 %cmp.i.i.i.i.i, label %if.then.i.i.i.i.i, label %_ZNSt3__119__allocate_at_leastB8ne190000INS_9allocatorINS_4pairIPcjEEEEEENS_19__allocation_resultINS_16allocator_traitsIT_E7pointerEEERS8_j.exit.i.i.i

if.then.i.i.i.i.i:                                ; preds = %if.else.i.i.i
  invoke void @_ZSt28__throw_bad_array_new_lengthB8ne190000v() #31
          to label %.noexc334 unwind label %lpad156

.noexc334:                                        ; preds = %if.then.i.i.i.i.i
  unreachable

_ZNSt3__119__allocate_at_leastB8ne190000INS_9allocatorINS_4pairIPcjEEEEEENS_19__allocation_resultINS_16allocator_traitsIT_E7pointerEEERS8_j.exit.i.i.i: ; preds = %if.else.i.i.i
  %mul.i.i.i.i.i = shl nuw i32 %retval.0.i.i.i, 3
  %call.i5.i.i.i.i.i.i335 = invoke noalias noundef nonnull ptr @_Znwj(i32 noundef %mul.i.i.i.i.i) #32
          to label %_ZNSt3__114__split_bufferINS_4pairIPcjEERNS_9allocatorIS3_EEE17__destruct_at_endB8ne190000EPS3_.exit.i.i.i unwind label %lpad156

_ZNSt3__114__split_bufferINS_4pairIPcjEERNS_9allocatorIS3_EEE17__destruct_at_endB8ne190000EPS3_.exit.i.i.i: ; preds = %_ZNSt3__119__allocate_at_leastB8ne190000INS_9allocatorINS_4pairIPcjEEEEEENS_19__allocation_resultINS_16allocator_traitsIT_E7pointerEEERS8_j.exit.i.i.i, %_ZNKSt3__16vectorINS_4pairIPcjEENS_9allocatorIS3_EEE11__recommendB8ne190000Ej.exit.i.i
  %storemerge.i.i.i = phi ptr [ null, %_ZNKSt3__16vectorINS_4pairIPcjEENS_9allocatorIS3_EEE11__recommendB8ne190000Ej.exit.i.i ], [ %call.i5.i.i.i.i.i.i335, %_ZNSt3__119__allocate_at_leastB8ne190000INS_9allocatorINS_4pairIPcjEEEEEENS_19__allocation_resultINS_16allocator_traitsIT_E7pointerEEERS8_j.exit.i.i.i ]
  %add.ptr.i.i.i = getelementptr inbounds %"struct.std::__1::pair", ptr %storemerge.i.i.i, i32 %sub.ptr.div.i.i.i
  %add.ptr6.i.i.i = getelementptr inbounds %"struct.std::__1::pair", ptr %storemerge.i.i.i, i32 %retval.0.i.i.i
  %60 = ptrtoint ptr %54 to i32
  store i32 %60, ptr %add.ptr.i.i.i, align 4
  %add.ptr.i.i.i.sroa_idx = getelementptr inbounds i8, ptr %add.ptr.i.i.i, i32 4
  store i32 %53, ptr %add.ptr.i.i.i.sroa_idx, align 4
  %incdec.ptr.i9.i = getelementptr inbounds i8, ptr %add.ptr.i.i.i, i32 8
  call void @llvm.memcpy.p0.p0.i32(ptr align 4 %storemerge.i.i.i, ptr align 4 %58, i32 %sub.ptr.sub.i.i.i, i1 false)
  store ptr %storemerge.i.i.i, ptr %free_, align 4, !tbaa !201
  store ptr %incdec.ptr.i9.i, ptr %__end_.i200, align 4, !tbaa !201
  store ptr %add.ptr6.i.i.i, ptr %__end_cap_.i201, align 4, !tbaa !201
  %tobool.not.i.i.i = icmp eq ptr %58, null
  br i1 %tobool.not.i.i.i, label %_ZNSt3__16vectorINS_4pairIPcjEENS_9allocatorIS3_EEE12emplace_backIJS3_EEERS3_DpOT_.exit, label %if.then.i26.i.i

if.then.i26.i.i:                                  ; preds = %_ZNSt3__114__split_bufferINS_4pairIPcjEERNS_9allocatorIS3_EEE17__destruct_at_endB8ne190000EPS3_.exit.i.i.i
  call void @_ZdlPvj(ptr noundef nonnull %58, i32 noundef %sub.ptr.sub.i.i.i.i) #29
  br label %_ZNSt3__16vectorINS_4pairIPcjEENS_9allocatorIS3_EEE12emplace_backIJS3_EEERS3_DpOT_.exit

_ZNSt3__16vectorINS_4pairIPcjEENS_9allocatorIS3_EEE12emplace_backIJS3_EEERS3_DpOT_.exit: ; preds = %if.then.i333, %_ZNSt3__114__split_bufferINS_4pairIPcjEERNS_9allocatorIS3_EEE17__destruct_at_endB8ne190000EPS3_.exit.i.i.i, %if.then.i26.i.i
  %__end.0.i = phi ptr [ %incdec.ptr.i.i, %if.then.i333 ], [ %incdec.ptr.i9.i, %_ZNSt3__114__split_bufferINS_4pairIPcjEERNS_9allocatorIS3_EEE17__destruct_at_endB8ne190000EPS3_.exit.i.i.i ], [ %incdec.ptr.i9.i, %if.then.i26.i.i ]
  store ptr %__end.0.i, ptr %__end_.i200, align 4, !tbaa !200
  call void @llvm.lifetime.end.p0(ptr %availBlockLayout)
  call void @llvm.lifetime.end.p0(ptr %totalBlockLayout)
  call void @llvm.lifetime.end.p0(ptr %availBlockSize)
  call void @llvm.lifetime.end.p0(ptr %resInfo)
  ret void

lpad156:                                          ; preds = %_ZNSt3__119__allocate_at_leastB8ne190000INS_9allocatorINS_4pairIPcjEEEEEENS_19__allocation_resultINS_16allocator_traitsIT_E7pointerEEERS8_j.exit.i.i.i, %if.then.i.i.i.i.i, %if.then.i.i.i
  %61 = landingpad { ptr, i32 }
          cleanup
  br label %ehcleanup161

ehcleanup161:                                     ; preds = %lpad156, %ehcleanup149, %ehcleanup130, %lpad95, %ehcleanup91, %lpad71, %lpad53, %ehcleanup48, %lpad12
  %.pn196 = phi { ptr, i32 } [ %2, %lpad12 ], [ %17, %lpad53 ], [ %29, %lpad95 ], [ %61, %lpad156 ], [ %.pn192.pn.pn, %ehcleanup149 ], [ %.pn188.pn.pn, %ehcleanup130 ], [ %.pn184.pn.pn, %ehcleanup91 ], [ %23, %lpad71 ], [ %.pn.pn.pn, %ehcleanup48 ]
  call void @llvm.lifetime.end.p0(ptr %availBlockLayout)
  call void @llvm.lifetime.end.p0(ptr %totalBlockLayout)
  call void @llvm.lifetime.end.p0(ptr %availBlockSize)
  br label %ehcleanup165

ehcleanup165:                                     ; preds = %ehcleanup161, %lpad
  %.pn198 = phi { ptr, i32 } [ %0, %lpad ], [ %.pn196, %ehcleanup161 ]
  %allocations_ = getelementptr inbounds i8, ptr %this, i32 16
  call void @llvm.lifetime.end.p0(ptr %resInfo)
  call void @_ZNSt3__16vectorINS_4pairIPcjEENS_9allocatorIS3_EEED2B8ne190000Ev(ptr noundef nonnull align 4 dereferenceable(12) %free_) #28
  call void @_ZNSt3__16vectorINS_4pairIPcjEENS_9allocatorIS3_EEED2B8ne190000Ev(ptr noundef nonnull align 4 dereferenceable(12) %allocations_) #28
  resume { ptr, i32 } %.pn198
}

declare i32 @__gxx_personality_v0(...)

; Function Attrs: nocallback nofree nounwind willreturn memory(argmem: write)
declare void @llvm.memset.p0.i64(ptr writeonly captures(none), i8, i64, i1 immarg) #2

; Function Attrs: nocallback nofree nosync nounwind willreturn memory(argmem: readwrite)
declare void @llvm.lifetime.start.p0(ptr captures(none)) #7

declare extern_weak i32 @compute_resource_attr_init_v2(ptr noundef, i32 noundef, i32 noundef) #3

declare extern_weak i32 @compute_resource_attr_init(ptr noundef) #3

declare extern_weak void @HAP_debug_v2(i32 noundef, ptr noundef, i32 noundef, ptr noundef, ...) #3

; Function Attrs: inlinehint mustprogress
define internal void @_ZL13_HAP_debug_v2iPKciS0_z(i32 %level, ptr readnone captures(none) %file, i32 noundef %line, ptr noundef readonly captures(none) %format, ...) unnamed_addr #8 {
entry:
  %buf = alloca [256 x i8], align 8
  %args = alloca ptr, align 4
  call void @llvm.lifetime.start.p0(ptr %buf)
  call void @llvm.lifetime.start.p0(ptr %args)
  call void @llvm.va_start.p0(ptr nonnull %args)
  %0 = load ptr, ptr %args, align 4, !tbaa !201
  %call = call i32 @vsnprintf(ptr noundef nonnull %buf, i32 noundef 256, ptr noundef %format, ptr noundef %0) #28
  call void @llvm.va_end.p0(ptr nonnull %args)
  call void @HAP_debug(ptr noundef nonnull %buf, i32 noundef 3, ptr noundef nonnull @.str, i32 noundef %line)
  call void @llvm.lifetime.end.p0(ptr %args)
  call void @llvm.lifetime.end.p0(ptr %buf)
  ret void
}

declare extern_weak i32 @compute_resource_query_VTCM(i32 noundef, ptr noundef, ptr noundef, ptr noundef, ptr noundef) local_unnamed_addr #3

; Function Attrs: nocallback nofree nosync nounwind speculatable willreturn memory(none)
declare i32 @llvm.umax.i32(i32, i32) #9

; Function Attrs: mustprogress
define linkonce_odr hidden void @_ZNSt3__119basic_ostringstreamIcNS_11char_traitsIcEENS_9allocatorIcEEEC1B8ne190000Ev(ptr noundef nonnull align 4 dereferenceable(56) %this) unnamed_addr #6 comdat align 2 personality ptr @__gxx_personality_v0 {
entry:
  %0 = getelementptr inbounds i8, ptr %this, i32 56
  %__loc_.i.i = getelementptr inbounds i8, ptr %this, i32 84
  store ptr null, ptr %__loc_.i.i, align 4, !tbaa !202
  store ptr getelementptr inbounds inrange(-12, 8) (i8, ptr @_ZTVNSt3__119basic_ostringstreamIcNS_11char_traitsIcEENS_9allocatorIcEEEE, i32 32), ptr %0, align 4, !tbaa !190
  %__sb_ = getelementptr inbounds i8, ptr %this, i32 4
  %1 = load ptr, ptr getelementptr inbounds (i8, ptr @_ZTTNSt3__119basic_ostringstreamIcNS_11char_traitsIcEENS_9allocatorIcEEEE, i32 4), align 4
  store ptr %1, ptr %this, align 4, !tbaa !190
  %2 = load ptr, ptr getelementptr inbounds (i8, ptr @_ZTTNSt3__119basic_ostringstreamIcNS_11char_traitsIcEENS_9allocatorIcEEEE, i32 8), align 4
  %vbase.offset.ptr.i = getelementptr i8, ptr %1, i32 -12
  %vbase.offset.i = load i32, ptr %vbase.offset.ptr.i, align 4
  %add.ptr.i = getelementptr inbounds i8, ptr %this, i32 %vbase.offset.i
  store ptr %2, ptr %add.ptr.i, align 4, !tbaa !190
  %vtable3.i = load ptr, ptr %this, align 4, !tbaa !190
  %vbase.offset.ptr4.i = getelementptr i8, ptr %vtable3.i, i32 -12
  %vbase.offset5.i = load i32, ptr %vbase.offset.ptr4.i, align 4
  %add.ptr6.i = getelementptr inbounds i8, ptr %this, i32 %vbase.offset5.i
  invoke void @_ZNSt3__18ios_base4initEPv(ptr noundef nonnull align 4 dereferenceable(72) %add.ptr6.i, ptr noundef nonnull %__sb_)
          to label %_ZNSt3__113basic_ostreamIcNS_11char_traitsIcEEEC2B8ne190000EPNS_15basic_streambufIcS2_EE.exit unwind label %lpad

_ZNSt3__113basic_ostreamIcNS_11char_traitsIcEEEC2B8ne190000EPNS_15basic_streambufIcS2_EE.exit: ; preds = %entry
  %__tie_.i.i = getelementptr inbounds i8, ptr %add.ptr6.i, i32 72
  store ptr null, ptr %__tie_.i.i, align 4, !tbaa !204
  %__fill_.i.i = getelementptr inbounds i8, ptr %add.ptr6.i, i32 76
  store i32 -1, ptr %__fill_.i.i, align 1, !tbaa !207
  store ptr getelementptr inbounds inrange(-12, 8) (i8, ptr @_ZTVNSt3__119basic_ostringstreamIcNS_11char_traitsIcEENS_9allocatorIcEEEE, i32 12), ptr %this, align 4, !tbaa !190
  store ptr getelementptr inbounds inrange(-12, 8) (i8, ptr @_ZTVNSt3__119basic_ostringstreamIcNS_11char_traitsIcEENS_9allocatorIcEEEE, i32 32), ptr %0, align 4, !tbaa !190
  invoke void @_ZNSt3__115basic_streambufIcNS_11char_traitsIcEEEC2Ev(ptr noundef nonnull align 4 dereferenceable(32) %__sb_)
          to label %_ZNSt3__115basic_stringbufIcNS_11char_traitsIcEENS_9allocatorIcEEEC2B8ne190000Ej.exit unwind label %lpad4

_ZNSt3__115basic_stringbufIcNS_11char_traitsIcEENS_9allocatorIcEEEC2B8ne190000Ej.exit: ; preds = %_ZNSt3__113basic_ostreamIcNS_11char_traitsIcEEEC2B8ne190000EPNS_15basic_streambufIcS2_EE.exit
  store ptr getelementptr inbounds inrange(-8, 56) (i8, ptr @_ZTVNSt3__115basic_stringbufIcNS_11char_traitsIcEENS_9allocatorIcEEEE, i32 8), ptr %__sb_, align 4, !tbaa !190
  %__str_.i = getelementptr inbounds i8, ptr %this, i32 36
  %__mode_.i = getelementptr inbounds i8, ptr %this, i32 52
  tail call void @llvm.memset.p0.i64(ptr noundef nonnull align 4 dereferenceable(16) %__str_.i, i8 0, i64 16, i1 false)
  store i32 16, ptr %__mode_.i, align 4, !tbaa !208
  ret void

lpad:                                             ; preds = %entry
  %3 = landingpad { ptr, i32 }
          cleanup
  br label %ehcleanup

lpad4:                                            ; preds = %_ZNSt3__113basic_ostreamIcNS_11char_traitsIcEEEC2B8ne190000EPNS_15basic_streambufIcS2_EE.exit
  %4 = landingpad { ptr, i32 }
          cleanup
  tail call void @_ZNSt3__113basic_ostreamIcNS_11char_traitsIcEEED2Ev(ptr noundef nonnull align 4 dereferenceable(4) %this, ptr noundef nonnull getelementptr inbounds (i8, ptr @_ZTTNSt3__119basic_ostringstreamIcNS_11char_traitsIcEENS_9allocatorIcEEEE, i32 4)) #28
  br label %ehcleanup

ehcleanup:                                        ; preds = %lpad4, %lpad
  %.pn = phi { ptr, i32 } [ %4, %lpad4 ], [ %3, %lpad ]
  tail call void @_ZNSt3__19basic_iosIcNS_11char_traitsIcEEED2Ev(ptr noundef nonnull align 4 dereferenceable(80) %0) #28
  resume { ptr, i32 } %.pn
}

; Function Attrs: mustprogress
define linkonce_odr hidden noundef nonnull align 4 dereferenceable(4) ptr @_ZNSt3__124__put_character_sequenceB8ne190000IcNS_11char_traitsIcEEEERNS_13basic_ostreamIT_T0_EES7_PKS4_j(ptr noundef nonnull align 4 dereferenceable(4) %__os, ptr noundef %__str, i32 noundef %__len) local_unnamed_addr #6 comdat personality ptr @__gxx_personality_v0 {
entry:
  %ref.tmp.i.i = alloca %"class.std::__1::basic_ostream.base", align 4
  %__s = alloca %"class.std::__1::basic_ostream<char>::sentry", align 4
  call void @llvm.lifetime.start.p0(ptr %__s)
  invoke void @_ZNSt3__113basic_ostreamIcNS_11char_traitsIcEEE6sentryC1ERS3_(ptr noundef nonnull align 4 dereferenceable(8) %__s, ptr noundef nonnull align 4 dereferenceable(4) %__os)
          to label %invoke.cont unwind label %lpad

invoke.cont:                                      ; preds = %entry
  %0 = load i8, ptr %__s, align 4, !tbaa !215, !range !218, !noundef !219
  %loadedv.i = trunc nuw i8 %0 to i1
  br i1 %loadedv.i, label %if.then, label %if.end28

if.then:                                          ; preds = %invoke.cont
  %vtable.i = load ptr, ptr %__os, align 4, !tbaa !190
  %vbase.offset.ptr.i = getelementptr i8, ptr %vtable.i, i32 -12
  %vbase.offset.i = load i32, ptr %vbase.offset.ptr.i, align 4
  %add.ptr.i = getelementptr inbounds i8, ptr %__os, i32 %vbase.offset.i
  %__rdbuf_.i.i.i = getelementptr inbounds i8, ptr %add.ptr.i, i32 24
  %1 = load ptr, ptr %__rdbuf_.i.i.i, align 4, !tbaa !220
  %__fmtflags_.i = getelementptr inbounds i8, ptr %add.ptr.i, i32 4
  %2 = load i32, ptr %__fmtflags_.i, align 4, !tbaa !221
  %__fill_.i = getelementptr inbounds i8, ptr %add.ptr.i, i32 76
  %3 = load i32, ptr %__fill_.i, align 1, !tbaa !207
  %cmp.i.not.i = icmp eq i32 %3, -1
  br i1 %cmp.i.not.i, label %if.then.i, label %_ZNKSt3__19basic_iosIcNS_11char_traitsIcEEE4fillB8ne190000Ev.exit

if.then.i:                                        ; preds = %if.then
  call void @llvm.lifetime.start.p0(ptr %ref.tmp.i.i)
  invoke void @_ZNKSt3__18ios_base6getlocEv(ptr dead_on_unwind nonnull writable sret(%"class.std::__1::basic_ostream.base") align 4 %ref.tmp.i.i, ptr noundef nonnull align 4 dereferenceable(72) %add.ptr.i)
          to label %.noexc unwind label %lpad3

.noexc:                                           ; preds = %if.then.i
  %call.i5.i.i = invoke noundef nonnull align 4 dereferenceable(13) ptr @_ZNKSt3__16locale9use_facetERNS0_2idE(ptr noundef nonnull align 4 dereferenceable(4) %ref.tmp.i.i, ptr noundef nonnull align 4 dereferenceable(8) @_ZNSt3__15ctypeIcE2idE)
          to label %invoke.cont.i.i unwind label %lpad.i.i

invoke.cont.i.i:                                  ; preds = %.noexc
  %vtable.i.i.i = load ptr, ptr %call.i5.i.i, align 4, !tbaa !190
  %vfn.i.i.i = getelementptr inbounds i8, ptr %vtable.i.i.i, i32 28
  %4 = load ptr, ptr %vfn.i.i.i, align 4
  %call.i6.i.i = invoke noundef zeroext i8 %4(ptr noundef nonnull align 4 dereferenceable(13) %call.i5.i.i, i8 noundef zeroext 32)
          to label %_ZNKSt3__19basic_iosIcNS_11char_traitsIcEEE5widenB8ne190000Ec.exit.i unwind label %lpad.i.i

lpad.i.i:                                         ; preds = %invoke.cont.i.i, %.noexc
  %5 = landingpad { ptr, i32 }
          catch ptr null
  call void @_ZNSt3__16localeD1Ev(ptr noundef nonnull align 4 dereferenceable(4) %ref.tmp.i.i) #28
  call void @llvm.lifetime.end.p0(ptr %ref.tmp.i.i)
  br label %ehcleanup

_ZNKSt3__19basic_iosIcNS_11char_traitsIcEEE5widenB8ne190000Ec.exit.i: ; preds = %invoke.cont.i.i
  call void @_ZNSt3__16localeD1Ev(ptr noundef nonnull align 4 dereferenceable(4) %ref.tmp.i.i) #28
  call void @llvm.lifetime.end.p0(ptr %ref.tmp.i.i)
  %conv.i = zext i8 %call.i6.i.i to i32
  store i32 %conv.i, ptr %__fill_.i, align 1, !tbaa !207
  br label %_ZNKSt3__19basic_iosIcNS_11char_traitsIcEEE4fillB8ne190000Ev.exit

_ZNKSt3__19basic_iosIcNS_11char_traitsIcEEE4fillB8ne190000Ev.exit: ; preds = %if.then, %_ZNKSt3__19basic_iosIcNS_11char_traitsIcEEE5widenB8ne190000Ec.exit.i
  %6 = phi i32 [ %conv.i, %_ZNKSt3__19basic_iosIcNS_11char_traitsIcEEE5widenB8ne190000Ec.exit.i ], [ %3, %if.then ]
  %conv7.i = trunc i32 %6 to i8
  %and = and i32 %2, 176
  %cmp = icmp eq i32 %and, 32
  %add.ptr6 = getelementptr inbounds i8, ptr %__str, i32 %__len
  %cond = select i1 %cmp, ptr %add.ptr6, ptr %__str
  %coerce.val.pi = ptrtoint ptr %1 to i32
  %call19 = invoke i32 @_ZNSt3__116__pad_and_outputB8ne190000IcNS_11char_traitsIcEEEENS_19ostreambuf_iteratorIT_T0_EES6_PKS4_S8_S8_RNS_8ios_baseES4_(i32 %coerce.val.pi, ptr noundef %__str, ptr noundef %cond, ptr noundef %add.ptr6, ptr noundef nonnull align 4 dereferenceable(72) %add.ptr.i, i8 noundef zeroext %conv7.i)
          to label %invoke.cont18 unwind label %lpad3

invoke.cont18:                                    ; preds = %_ZNKSt3__19basic_iosIcNS_11char_traitsIcEEE4fillB8ne190000Ev.exit
  %cmp.i = icmp eq i32 %call19, 0
  br i1 %cmp.i, label %if.then22, label %if.end28

if.then22:                                        ; preds = %invoke.cont18
  %vtable23 = load ptr, ptr %__os, align 4, !tbaa !190
  %vbase.offset.ptr24 = getelementptr i8, ptr %vtable23, i32 -12
  %vbase.offset25 = load i32, ptr %vbase.offset.ptr24, align 4
  %add.ptr26 = getelementptr inbounds i8, ptr %__os, i32 %vbase.offset25
  %__rdstate_.i.i = getelementptr inbounds i8, ptr %add.ptr26, i32 16
  %7 = load i32, ptr %__rdstate_.i.i, align 4, !tbaa !222
  %or.i.i = or i32 %7, 5
  invoke void @_ZNSt3__18ios_base5clearEj(ptr noundef nonnull align 4 dereferenceable(72) %add.ptr26, i32 noundef %or.i.i)
          to label %if.end28 unwind label %lpad1

lpad:                                             ; preds = %entry
  %8 = landingpad { ptr, i32 }
          catch ptr null
  br label %ehcleanup29

lpad1:                                            ; preds = %if.then22
  %9 = landingpad { ptr, i32 }
          catch ptr null
  br label %ehcleanup

lpad3:                                            ; preds = %if.then.i, %_ZNKSt3__19basic_iosIcNS_11char_traitsIcEEE4fillB8ne190000Ev.exit
  %10 = landingpad { ptr, i32 }
          catch ptr null
  br label %ehcleanup

if.end28:                                         ; preds = %if.then22, %invoke.cont18, %invoke.cont
  call void @_ZNSt3__113basic_ostreamIcNS_11char_traitsIcEEE6sentryD1Ev(ptr noundef nonnull align 4 dereferenceable(8) %__s) #28
  call void @llvm.lifetime.end.p0(ptr %__s)
  br label %try.cont

ehcleanup:                                        ; preds = %lpad3, %lpad.i.i, %lpad1
  %.pn = phi { ptr, i32 } [ %9, %lpad1 ], [ %10, %lpad3 ], [ %5, %lpad.i.i ]
  call void @_ZNSt3__113basic_ostreamIcNS_11char_traitsIcEEE6sentryD1Ev(ptr noundef nonnull align 4 dereferenceable(8) %__s) #28
  br label %ehcleanup29

ehcleanup29:                                      ; preds = %ehcleanup, %lpad
  %.pn.pn = phi { ptr, i32 } [ %.pn, %ehcleanup ], [ %8, %lpad ]
  %exn.slot.1 = extractvalue { ptr, i32 } %.pn.pn, 0
  call void @llvm.lifetime.end.p0(ptr %__s)
  %11 = call ptr @__cxa_begin_catch(ptr %exn.slot.1) #28
  %vtable30 = load ptr, ptr %__os, align 4, !tbaa !190
  %vbase.offset.ptr31 = getelementptr i8, ptr %vtable30, i32 -12
  %vbase.offset32 = load i32, ptr %vbase.offset.ptr31, align 4
  %add.ptr33 = getelementptr inbounds i8, ptr %__os, i32 %vbase.offset32
  invoke void @_ZNSt3__18ios_base33__set_badbit_and_consider_rethrowEv(ptr noundef nonnull align 4 dereferenceable(72) %add.ptr33)
          to label %invoke.cont35 unwind label %lpad34

invoke.cont35:                                    ; preds = %ehcleanup29
  call void @__cxa_end_catch()
  br label %try.cont

try.cont:                                         ; preds = %invoke.cont35, %if.end28
  ret ptr %__os

lpad34:                                           ; preds = %ehcleanup29
  %12 = landingpad { ptr, i32 }
          cleanup
  invoke void @__cxa_end_catch()
          to label %eh.resume unwind label %terminate.lpad

eh.resume:                                        ; preds = %lpad34
  resume { ptr, i32 } %12

terminate.lpad:                                   ; preds = %lpad34
  %13 = landingpad { ptr, i32 }
          catch ptr null
  %14 = extractvalue { ptr, i32 } %13, 0
  call void @__clang_call_terminate(ptr %14) #30
  unreachable
}

declare void @_ZNKSt3__115basic_stringbufIcNS_11char_traitsIcEENS_9allocatorIcEEE3strEv(ptr dead_on_unwind writable sret(%"class.std::__1::basic_string") align 4, ptr noundef nonnull align 4 dereferenceable(52)) local_unnamed_addr #3

; Function Attrs: inlinehint mustprogress
define linkonce_odr hidden void @_Z11CheckFailedPKcS0_iRKNSt3__112basic_stringIcNS1_11char_traitsIcEENS1_9allocatorIcEEEE(ptr noundef %expr, ptr noundef %file, i32 noundef %line, ptr noundef nonnull align 4 dereferenceable(12) %msg) local_unnamed_addr #8 comdat {
entry:
  %call1.i = tail call noundef nonnull align 4 dereferenceable(4) ptr @_ZNSt3__124__put_character_sequenceB8ne190000IcNS_11char_traitsIcEEEERNS_13basic_ostreamIT_T0_EES7_PKS4_j(ptr noundef nonnull align 4 dereferenceable(4) @_ZNSt3__14cerrE, ptr noundef nonnull @.str.32, i32 noundef 7)
  %call.i.i.i11 = tail call noundef i32 @strlen(ptr noundef nonnull dereferenceable(1) %expr) #28
  %call1.i12 = tail call noundef nonnull align 4 dereferenceable(4) ptr @_ZNSt3__124__put_character_sequenceB8ne190000IcNS_11char_traitsIcEEEERNS_13basic_ostreamIT_T0_EES7_PKS4_j(ptr noundef nonnull align 4 dereferenceable(4) %call1.i, ptr noundef %expr, i32 noundef %call.i.i.i11)
  %call1.i14 = tail call noundef nonnull align 4 dereferenceable(4) ptr @_ZNSt3__124__put_character_sequenceB8ne190000IcNS_11char_traitsIcEEEERNS_13basic_ostreamIT_T0_EES7_PKS4_j(ptr noundef nonnull align 4 dereferenceable(4) %call1.i12, ptr noundef nonnull @.str.33, i32 noundef 11)
  %call.i.i.i15 = tail call noundef i32 @strlen(ptr noundef nonnull dereferenceable(1) %file) #28
  %call1.i16 = tail call noundef nonnull align 4 dereferenceable(4) ptr @_ZNSt3__124__put_character_sequenceB8ne190000IcNS_11char_traitsIcEEEERNS_13basic_ostreamIT_T0_EES7_PKS4_j(ptr noundef nonnull align 4 dereferenceable(4) %call1.i14, ptr noundef %file, i32 noundef %call.i.i.i15)
  %call1.i18 = tail call noundef nonnull align 4 dereferenceable(4) ptr @_ZNSt3__124__put_character_sequenceB8ne190000IcNS_11char_traitsIcEEEERNS_13basic_ostreamIT_T0_EES7_PKS4_j(ptr noundef nonnull align 4 dereferenceable(4) %call1.i16, ptr noundef nonnull @.str.34, i32 noundef 1)
  %call5 = tail call noundef nonnull align 4 dereferenceable(4) ptr @_ZNSt3__113basic_ostreamIcNS_11char_traitsIcEEElsEi(ptr noundef nonnull align 4 dereferenceable(4) %call1.i18, i32 noundef %line)
  %bf.load.i.i.i = load i8, ptr %msg, align 4
  %bf.clear.i.i.i = and i8 %bf.load.i.i.i, 1
  %tobool.i.not.i.i = icmp eq i8 %bf.clear.i.i.i, 0
  %__size_.i.i.i = getelementptr inbounds i8, ptr %msg, i32 4
  %0 = load i32, ptr %__size_.i.i.i, align 4
  %bf.lshr.i.i.i = lshr i8 %bf.load.i.i.i, 1
  %conv.i.i.i = zext nneg i8 %bf.lshr.i.i.i to i32
  %cond.i.i = select i1 %tobool.i.not.i.i, i32 %conv.i.i.i, i32 %0
  %cmp.i = icmp eq i32 %cond.i.i, 0
  br i1 %cmp.i, label %if.end, label %if.then

if.then:                                          ; preds = %entry
  %call1.i20 = tail call noundef nonnull align 4 dereferenceable(4) ptr @_ZNSt3__124__put_character_sequenceB8ne190000IcNS_11char_traitsIcEEEERNS_13basic_ostreamIT_T0_EES7_PKS4_j(ptr noundef nonnull align 4 dereferenceable(4) @_ZNSt3__14cerrE, ptr noundef nonnull @.str.35, i32 noundef 3)
  %bf.load.i.i.i.i = load i8, ptr %msg, align 4
  %bf.clear.i.i.i.i = and i8 %bf.load.i.i.i.i, 1
  %tobool.i.not.i.i.i = icmp eq i8 %bf.clear.i.i.i.i, 0
  %__data_.i.i.i.i = getelementptr inbounds i8, ptr %msg, i32 8
  %1 = load ptr, ptr %__data_.i.i.i.i, align 4
  %__data_.i4.i.i.i = getelementptr inbounds i8, ptr %msg, i32 1
  %cond.i.i.i = select i1 %tobool.i.not.i.i.i, ptr %__data_.i4.i.i.i, ptr %1
  %2 = load i32, ptr %__size_.i.i.i, align 4
  %bf.lshr.i.i.i22 = lshr i8 %bf.load.i.i.i.i, 1
  %conv.i.i.i23 = zext nneg i8 %bf.lshr.i.i.i22 to i32
  %cond.i.i24 = select i1 %tobool.i.not.i.i.i, i32 %conv.i.i.i23, i32 %2
  %call2.i = tail call noundef nonnull align 4 dereferenceable(4) ptr @_ZNSt3__124__put_character_sequenceB8ne190000IcNS_11char_traitsIcEEEERNS_13basic_ostreamIT_T0_EES7_PKS4_j(ptr noundef nonnull align 4 dereferenceable(4) %call1.i20, ptr noundef %cond.i.i.i, i32 noundef %cond.i.i24)
  br label %if.end

if.end:                                           ; preds = %if.then, %entry
  %call.i = tail call noundef nonnull align 4 dereferenceable(4) ptr @_ZNSt3__14endlB8ne190000IcNS_11char_traitsIcEEEERNS_13basic_ostreamIT_T0_EES7_(ptr noundef nonnull align 4 dereferenceable(4) @_ZNSt3__14cerrE)
  tail call void @abort() #30
  unreachable
}

; Function Attrs: nobuiltin nounwind
declare void @_ZdlPvj(ptr noundef, i32 noundef) local_unnamed_addr #10

; Function Attrs: nocallback nofree nosync nounwind willreturn memory(argmem: readwrite)
declare void @llvm.lifetime.end.p0(ptr captures(none)) #7

; Function Attrs: nounwind
declare void @_ZNSt3__115basic_streambufIcNS_11char_traitsIcEEED2Ev(ptr noundef nonnull align 4 dereferenceable(32)) unnamed_addr #4

; Function Attrs: nounwind
declare void @_ZNSt3__113basic_ostreamIcNS_11char_traitsIcEEED2Ev(ptr noundef nonnull align 4 dereferenceable(4), ptr noundef) unnamed_addr #4

; Function Attrs: nounwind
declare void @_ZNSt3__19basic_iosIcNS_11char_traitsIcEEED2Ev(ptr noundef nonnull align 4 dereferenceable(80)) unnamed_addr #4

; Function Attrs: inlinehint mustprogress nounwind
define linkonce_odr hidden void @_ZNSt3__119basic_ostringstreamIcNS_11char_traitsIcEENS_9allocatorIcEEED1Ev(ptr noundef nonnull align 4 dereferenceable(56) %this) unnamed_addr #11 comdat align 2 personality ptr @__gxx_personality_v0 {
entry:
  %0 = load ptr, ptr @_ZTTNSt3__119basic_ostringstreamIcNS_11char_traitsIcEENS_9allocatorIcEEEE, align 4
  store ptr %0, ptr %this, align 4, !tbaa !190
  %1 = load ptr, ptr getelementptr inbounds (i8, ptr @_ZTTNSt3__119basic_ostringstreamIcNS_11char_traitsIcEENS_9allocatorIcEEEE, i32 12), align 4
  %vbase.offset.ptr.i = getelementptr i8, ptr %0, i32 -12
  %vbase.offset.i = load i32, ptr %vbase.offset.ptr.i, align 4
  %add.ptr.i = getelementptr inbounds i8, ptr %this, i32 %vbase.offset.i
  store ptr %1, ptr %add.ptr.i, align 4, !tbaa !190
  %__sb_.i = getelementptr inbounds i8, ptr %this, i32 4
  store ptr getelementptr inbounds inrange(-8, 56) (i8, ptr @_ZTVNSt3__115basic_stringbufIcNS_11char_traitsIcEENS_9allocatorIcEEEE, i32 8), ptr %__sb_.i, align 4, !tbaa !190
  %__str_.i.i = getelementptr inbounds i8, ptr %this, i32 36
  %bf.load.i.i.i.i = load i8, ptr %__str_.i.i, align 4
  %bf.clear.i.i.i.i = and i8 %bf.load.i.i.i.i, 1
  %tobool.i.not.i.i.i = icmp eq i8 %bf.clear.i.i.i.i, 0
  br i1 %tobool.i.not.i.i.i, label %_ZNSt3__119basic_ostringstreamIcNS_11char_traitsIcEENS_9allocatorIcEEED2Ev.exit, label %if.then.i.i.i

if.then.i.i.i:                                    ; preds = %entry
  %__data_.i.i.i.i = getelementptr inbounds i8, ptr %this, i32 44
  %2 = load ptr, ptr %__data_.i.i.i.i, align 4, !tbaa !189
  %bf.load.i5.i.i.i = load i32, ptr %__str_.i.i, align 4
  %bf.lshr.i.i.i.i = and i32 %bf.load.i5.i.i.i, -2
  tail call void @_ZdlPvj(ptr noundef %2, i32 noundef %bf.lshr.i.i.i.i) #29
  br label %_ZNSt3__119basic_ostringstreamIcNS_11char_traitsIcEENS_9allocatorIcEEED2Ev.exit

_ZNSt3__119basic_ostringstreamIcNS_11char_traitsIcEENS_9allocatorIcEEED2Ev.exit: ; preds = %entry, %if.then.i.i.i
  tail call void @_ZNSt3__115basic_streambufIcNS_11char_traitsIcEEED2Ev(ptr noundef nonnull align 4 dereferenceable(32) %__sb_.i) #28
  tail call void @_ZNSt3__113basic_ostreamIcNS_11char_traitsIcEEED2Ev(ptr noundef nonnull align 4 dereferenceable(4) %this, ptr noundef nonnull getelementptr inbounds (i8, ptr @_ZTTNSt3__119basic_ostringstreamIcNS_11char_traitsIcEENS_9allocatorIcEEEE, i32 4)) #28
  %3 = getelementptr inbounds i8, ptr %this, i32 56
  tail call void @_ZNSt3__19basic_iosIcNS_11char_traitsIcEEED2Ev(ptr noundef nonnull align 4 dereferenceable(80) %3) #28
  ret void
}

declare extern_weak i32 @compute_resource_attr_set_vtcm_param_v2(ptr noundef, i32 noundef, i32 noundef, i32 noundef) #3

declare extern_weak i32 @compute_resource_acquire(ptr noundef, i32 noundef) #3

declare extern_weak i32 @compute_resource_attr_get_vtcm_ptr_v2(ptr noundef, ptr noundef, ptr noundef) #3

; Function Attrs: noreturn nounwind
declare void @abort() local_unnamed_addr #12

; Function Attrs: mustprogress noreturn
define linkonce_odr hidden void @_ZNKSt3__16vectorINS_4pairIPcjEENS_9allocatorIS3_EEE20__throw_length_errorB8ne190000Ev(ptr noundef nonnull align 4 dereferenceable(12) %this) local_unnamed_addr #13 comdat align 2 {
entry:
  tail call void @_ZNSt3__120__throw_length_errorB8ne190000EPKc(ptr noundef nonnull @.str.37) #31
  unreachable
}

; Function Attrs: inlinehint mustprogress noreturn
define linkonce_odr hidden void @_ZSt28__throw_bad_array_new_lengthB8ne190000v() local_unnamed_addr #14 comdat {
entry:
  %exception = tail call ptr @__cxa_allocate_exception(i32 4) #28
  tail call void @_ZNSt20bad_array_new_lengthC1Ev(ptr noundef nonnull align 4 dereferenceable(4) %exception) #28
  tail call void @__cxa_throw(ptr nonnull %exception, ptr nonnull @_ZTISt20bad_array_new_length, ptr nonnull @_ZNSt20bad_array_new_lengthD1Ev) #31
  unreachable
}

; Function Attrs: nobuiltin allocsize(0)
declare noundef nonnull ptr @_Znwj(i32 noundef) local_unnamed_addr #15

; Function Attrs: nocallback nofree nounwind willreturn memory(argmem: readwrite)
declare void @llvm.memcpy.p0.p0.i32(ptr noalias writeonly captures(none), ptr noalias readonly captures(none), i32, i1 immarg) #16

; Function Attrs: mustprogress nounwind
define linkonce_odr hidden void @_ZNSt3__16vectorINS_4pairIPcjEENS_9allocatorIS3_EEED2B8ne190000Ev(ptr noundef nonnull align 4 dereferenceable(12) %this) unnamed_addr #17 comdat align 2 personality ptr @__gxx_personality_v0 {
entry:
  %0 = load ptr, ptr %this, align 4, !tbaa !223
  %cmp.not.i = icmp eq ptr %0, null
  br i1 %cmp.not.i, label %_ZNSt3__16vectorINS_4pairIPcjEENS_9allocatorIS3_EEE16__destroy_vectorclB8ne190000Ev.exit, label %if.then.i

if.then.i:                                        ; preds = %entry
  %__end_.i.i.i = getelementptr inbounds i8, ptr %this, i32 4
  store ptr %0, ptr %__end_.i.i.i, align 4, !tbaa !200
  %__end_cap_.i.i.i = getelementptr inbounds i8, ptr %this, i32 8
  %1 = load ptr, ptr %__end_cap_.i.i.i, align 4, !tbaa !201
  %sub.ptr.lhs.cast.i.i = ptrtoint ptr %1 to i32
  %sub.ptr.rhs.cast.i.i = ptrtoint ptr %0 to i32
  %sub.ptr.sub.i.i = sub i32 %sub.ptr.lhs.cast.i.i, %sub.ptr.rhs.cast.i.i
  tail call void @_ZdlPvj(ptr noundef nonnull %0, i32 noundef %sub.ptr.sub.i.i) #29
  br label %_ZNSt3__16vectorINS_4pairIPcjEENS_9allocatorIS3_EEE16__destroy_vectorclB8ne190000Ev.exit

_ZNSt3__16vectorINS_4pairIPcjEENS_9allocatorIS3_EEE16__destroy_vectorclB8ne190000Ev.exit: ; preds = %entry, %if.then.i
  ret void
}

declare ptr @__cxa_allocate_exception(i32) local_unnamed_addr

; Function Attrs: nounwind
declare void @_ZNSt20bad_array_new_lengthC1Ev(ptr noundef nonnull align 4 dereferenceable(4)) unnamed_addr #4

; Function Attrs: nounwind
declare void @_ZNSt20bad_array_new_lengthD1Ev(ptr noundef nonnull align 4 dereferenceable(4)) unnamed_addr #4

declare void @__cxa_throw(ptr, ptr, ptr) local_unnamed_addr

; Function Attrs: inlinehint mustprogress noreturn
define linkonce_odr hidden void @_ZNSt3__120__throw_length_errorB8ne190000EPKc(ptr noundef %__msg) local_unnamed_addr #14 comdat personality ptr @__gxx_personality_v0 {
entry:
  %exception = tail call ptr @__cxa_allocate_exception(i32 8) #28
  invoke void @_ZNSt12length_errorC2B8ne190000EPKc(ptr noundef nonnull align 4 dereferenceable(8) %exception, ptr noundef %__msg)
          to label %invoke.cont unwind label %lpad

invoke.cont:                                      ; preds = %entry
  tail call void @__cxa_throw(ptr nonnull %exception, ptr nonnull @_ZTISt12length_error, ptr nonnull @_ZNSt12length_errorD1Ev) #31
  unreachable

lpad:                                             ; preds = %entry
  %0 = landingpad { ptr, i32 }
          cleanup
  tail call void @__cxa_free_exception(ptr %exception) #28
  resume { ptr, i32 } %0
}

; Function Attrs: mustprogress
define linkonce_odr hidden void @_ZNSt12length_errorC2B8ne190000EPKc(ptr noundef nonnull align 4 dereferenceable(8) %this, ptr noundef %__s) unnamed_addr #6 comdat align 2 {
entry:
  tail call void @_ZNSt11logic_errorC2EPKc(ptr noundef nonnull align 4 dereferenceable(8) %this, ptr noundef %__s)
  store ptr getelementptr inbounds inrange(-8, 12) (i8, ptr @_ZTVSt12length_error, i32 8), ptr %this, align 4, !tbaa !190
  ret void
}

; Function Attrs: nounwind
declare void @_ZNSt12length_errorD1Ev(ptr noundef nonnull align 4 dereferenceable(8)) unnamed_addr #4

declare void @__cxa_free_exception(ptr) local_unnamed_addr

declare void @_ZNSt11logic_errorC2EPKc(ptr noundef nonnull align 4 dereferenceable(8), ptr noundef) unnamed_addr #3

; Function Attrs: mustprogress nofree nounwind willreturn memory(argmem: read)
declare i32 @strlen(ptr noundef captures(none)) local_unnamed_addr #18

declare noundef nonnull align 4 dereferenceable(4) ptr @_ZNSt3__113basic_ostreamIcNS_11char_traitsIcEEElsEi(ptr noundef nonnull align 4 dereferenceable(4), i32 noundef) local_unnamed_addr #3

; Function Attrs: inlinehint mustprogress
define linkonce_odr hidden noundef nonnull align 4 dereferenceable(4) ptr @_ZNSt3__14endlB8ne190000IcNS_11char_traitsIcEEEERNS_13basic_ostreamIT_T0_EES7_(ptr noundef nonnull align 4 dereferenceable(4) %__os) local_unnamed_addr #8 comdat personality ptr @__gxx_personality_v0 {
entry:
  %ref.tmp.i = alloca %"class.std::__1::basic_ostream.base", align 4
  %vtable = load ptr, ptr %__os, align 4, !tbaa !190
  %vbase.offset.ptr = getelementptr i8, ptr %vtable, i32 -12
  %vbase.offset = load i32, ptr %vbase.offset.ptr, align 4
  %add.ptr = getelementptr inbounds i8, ptr %__os, i32 %vbase.offset
  call void @llvm.lifetime.start.p0(ptr %ref.tmp.i)
  call void @_ZNKSt3__18ios_base6getlocEv(ptr dead_on_unwind nonnull writable sret(%"class.std::__1::basic_ostream.base") align 4 %ref.tmp.i, ptr noundef nonnull align 4 dereferenceable(72) %add.ptr)
  %call.i5.i = invoke noundef nonnull align 4 dereferenceable(13) ptr @_ZNKSt3__16locale9use_facetERNS0_2idE(ptr noundef nonnull align 4 dereferenceable(4) %ref.tmp.i, ptr noundef nonnull align 4 dereferenceable(8) @_ZNSt3__15ctypeIcE2idE)
          to label %invoke.cont.i unwind label %lpad.i

invoke.cont.i:                                    ; preds = %entry
  %vtable.i.i = load ptr, ptr %call.i5.i, align 4, !tbaa !190
  %vfn.i.i = getelementptr inbounds i8, ptr %vtable.i.i, i32 28
  %0 = load ptr, ptr %vfn.i.i, align 4
  %call.i6.i = invoke noundef zeroext i8 %0(ptr noundef nonnull align 4 dereferenceable(13) %call.i5.i, i8 noundef zeroext 10)
          to label %_ZNKSt3__19basic_iosIcNS_11char_traitsIcEEE5widenB8ne190000Ec.exit unwind label %lpad.i

lpad.i:                                           ; preds = %invoke.cont.i, %entry
  %1 = landingpad { ptr, i32 }
          cleanup
  call void @_ZNSt3__16localeD1Ev(ptr noundef nonnull align 4 dereferenceable(4) %ref.tmp.i) #28
  call void @llvm.lifetime.end.p0(ptr %ref.tmp.i)
  resume { ptr, i32 } %1

_ZNKSt3__19basic_iosIcNS_11char_traitsIcEEE5widenB8ne190000Ec.exit: ; preds = %invoke.cont.i
  call void @_ZNSt3__16localeD1Ev(ptr noundef nonnull align 4 dereferenceable(4) %ref.tmp.i) #28
  call void @llvm.lifetime.end.p0(ptr %ref.tmp.i)
  %call1 = call noundef nonnull align 4 dereferenceable(4) ptr @_ZNSt3__113basic_ostreamIcNS_11char_traitsIcEEE3putEc(ptr noundef nonnull align 4 dereferenceable(4) %__os, i8 noundef zeroext %call.i6.i)
  %call2 = call noundef nonnull align 4 dereferenceable(4) ptr @_ZNSt3__113basic_ostreamIcNS_11char_traitsIcEEE5flushEv(ptr noundef nonnull align 4 dereferenceable(4) %__os)
  ret ptr %__os
}

declare void @_ZNKSt3__18ios_base6getlocEv(ptr dead_on_unwind writable sret(%"class.std::__1::basic_ostream.base") align 4, ptr noundef nonnull align 4 dereferenceable(72)) local_unnamed_addr #3

declare noundef ptr @_ZNKSt3__16locale9use_facetERNS0_2idE(ptr noundef nonnull align 4 dereferenceable(4), ptr noundef nonnull align 4 dereferenceable(8)) local_unnamed_addr #3

; Function Attrs: nounwind
declare void @_ZNSt3__16localeD1Ev(ptr noundef nonnull align 4 dereferenceable(4)) unnamed_addr #4

declare noundef nonnull align 4 dereferenceable(4) ptr @_ZNSt3__113basic_ostreamIcNS_11char_traitsIcEEE3putEc(ptr noundef nonnull align 4 dereferenceable(4), i8 noundef zeroext) local_unnamed_addr #3

declare noundef nonnull align 4 dereferenceable(4) ptr @_ZNSt3__113basic_ostreamIcNS_11char_traitsIcEEE5flushEv(ptr noundef nonnull align 4 dereferenceable(4)) local_unnamed_addr #3

declare void @_ZNSt3__113basic_ostreamIcNS_11char_traitsIcEEE6sentryC1ERS3_(ptr noundef nonnull align 4 dereferenceable(8), ptr noundef nonnull align 4 dereferenceable(4)) unnamed_addr #3

; Function Attrs: mustprogress
define linkonce_odr hidden i32 @_ZNSt3__116__pad_and_outputB8ne190000IcNS_11char_traitsIcEEEENS_19ostreambuf_iteratorIT_T0_EES6_PKS4_S8_S8_RNS_8ios_baseES4_(i32 %__s.coerce, ptr noundef %__ob, ptr noundef %__op, ptr noundef %__oe, ptr noundef nonnull align 4 dereferenceable(72) %__iob, i8 noundef zeroext %__fl) local_unnamed_addr #6 comdat personality ptr @__gxx_personality_v0 {
entry:
  %__sp = alloca %"class.std::__1::basic_string", align 4
  %coerce.val.ip = inttoptr i32 %__s.coerce to ptr
  %cmp = icmp eq i32 %__s.coerce, 0
  br i1 %cmp, label %return, label %if.end

if.end:                                           ; preds = %entry
  %sub.ptr.lhs.cast = ptrtoint ptr %__oe to i32
  %sub.ptr.rhs.cast = ptrtoint ptr %__ob to i32
  %sub.ptr.sub = sub i32 %sub.ptr.lhs.cast, %sub.ptr.rhs.cast
  %__width_.i = getelementptr inbounds i8, ptr %__iob, i32 12
  %0 = load i32, ptr %__width_.i, align 4, !tbaa !224
  %cmp1 = icmp sgt i32 %0, %sub.ptr.sub
  %sub = sub nsw i32 %0, %sub.ptr.sub
  %spec.select = select i1 %cmp1, i32 %sub, i32 0
  %sub.ptr.lhs.cast4 = ptrtoint ptr %__op to i32
  %sub.ptr.sub6 = sub i32 %sub.ptr.lhs.cast4, %sub.ptr.rhs.cast
  %cmp7 = icmp sgt i32 %sub.ptr.sub6, 0
  br i1 %cmp7, label %if.then8, label %if.end15

if.then8:                                         ; preds = %if.end
  %vtable.i = load ptr, ptr %coerce.val.ip, align 4, !tbaa !190
  %vfn.i = getelementptr inbounds i8, ptr %vtable.i, i32 48
  %1 = load ptr, ptr %vfn.i, align 4
  %call.i = tail call noundef i32 %1(ptr noundef nonnull align 4 dereferenceable(32) %coerce.val.ip, ptr noundef %__ob, i32 noundef %sub.ptr.sub6)
  %cmp11.not = icmp eq i32 %call.i, %sub.ptr.sub6
  br i1 %cmp11.not, label %if.end15, label %return

if.end15:                                         ; preds = %if.then8, %if.end
  %cmp16 = icmp sgt i32 %spec.select, 0
  br i1 %cmp16, label %if.then17, label %if.end26

if.then17:                                        ; preds = %if.end15
  call void @llvm.lifetime.start.p0(ptr %__sp)
  call void @_ZNSt3__112basic_stringIcNS_11char_traitsIcEENS_9allocatorIcEEEC2B8ne190000Ejc(ptr noundef nonnull align 4 dereferenceable(12) %__sp, i32 noundef %spec.select, i8 noundef zeroext %__fl)
  %bf.load.i.i.i = load i8, ptr %__sp, align 4
  %bf.clear.i.i.i = and i8 %bf.load.i.i.i, 1
  %tobool.i.not.i.i = icmp eq i8 %bf.clear.i.i.i, 0
  %__data_.i.i.i = getelementptr inbounds i8, ptr %__sp, i32 8
  %2 = load ptr, ptr %__data_.i.i.i, align 4
  %__data_.i4.i.i = getelementptr inbounds i8, ptr %__sp, i32 1
  %cond.i.i = select i1 %tobool.i.not.i.i, ptr %__data_.i4.i.i, ptr %2
  %vtable.i72 = load ptr, ptr %coerce.val.ip, align 4, !tbaa !190
  %vfn.i73 = getelementptr inbounds i8, ptr %vtable.i72, i32 48
  %3 = load ptr, ptr %vfn.i73, align 4
  %call.i7475 = invoke noundef i32 %3(ptr noundef nonnull align 4 dereferenceable(32) %coerce.val.ip, ptr noundef %cond.i.i, i32 noundef %spec.select)
          to label %invoke.cont unwind label %lpad

invoke.cont:                                      ; preds = %if.then17
  %cmp21.not = icmp eq i32 %call.i7475, %spec.select
  %bf.load.i.i76 = load i8, ptr %__sp, align 4
  %bf.clear.i.i77 = and i8 %bf.load.i.i76, 1
  %tobool.i.not.i78 = icmp eq i8 %bf.clear.i.i77, 0
  br i1 %cmp21.not, label %cleanup.thread, label %cleanup

lpad:                                             ; preds = %if.then17
  %4 = landingpad { ptr, i32 }
          cleanup
  %bf.load.i.i = load i8, ptr %__sp, align 4
  %bf.clear.i.i = and i8 %bf.load.i.i, 1
  %tobool.i.not.i = icmp eq i8 %bf.clear.i.i, 0
  br i1 %tobool.i.not.i, label %_ZNSt3__112basic_stringIcNS_11char_traitsIcEENS_9allocatorIcEEED2Ev.exit, label %if.then.i

if.then.i:                                        ; preds = %lpad
  %5 = load ptr, ptr %__data_.i.i.i, align 4, !tbaa !189
  %bf.load.i5.i = load i32, ptr %__sp, align 4
  %bf.lshr.i.i = and i32 %bf.load.i5.i, -2
  call void @_ZdlPvj(ptr noundef %5, i32 noundef %bf.lshr.i.i) #29
  br label %_ZNSt3__112basic_stringIcNS_11char_traitsIcEENS_9allocatorIcEEED2Ev.exit

_ZNSt3__112basic_stringIcNS_11char_traitsIcEENS_9allocatorIcEEED2Ev.exit: ; preds = %lpad, %if.then.i
  call void @llvm.lifetime.end.p0(ptr %__sp)
  resume { ptr, i32 } %4

cleanup.thread:                                   ; preds = %invoke.cont
  br i1 %tobool.i.not.i78, label %_ZNSt3__112basic_stringIcNS_11char_traitsIcEENS_9allocatorIcEEED2Ev.exit83, label %if.then.i79

if.then.i79:                                      ; preds = %cleanup.thread
  %6 = load ptr, ptr %__data_.i.i.i, align 4, !tbaa !189
  %bf.load.i5.i81 = load i32, ptr %__sp, align 4
  %bf.lshr.i.i82 = and i32 %bf.load.i5.i81, -2
  call void @_ZdlPvj(ptr noundef %6, i32 noundef %bf.lshr.i.i82) #29
  br label %_ZNSt3__112basic_stringIcNS_11char_traitsIcEENS_9allocatorIcEEED2Ev.exit83

_ZNSt3__112basic_stringIcNS_11char_traitsIcEENS_9allocatorIcEEED2Ev.exit83: ; preds = %cleanup.thread, %if.then.i79
  call void @llvm.lifetime.end.p0(ptr %__sp)
  br label %if.end26

cleanup:                                          ; preds = %invoke.cont
  br i1 %tobool.i.not.i78, label %_ZNSt3__112basic_stringIcNS_11char_traitsIcEENS_9allocatorIcEEED2Ev.exit91, label %if.then.i87

if.then.i87:                                      ; preds = %cleanup
  %7 = load ptr, ptr %__data_.i.i.i, align 4, !tbaa !189
  %bf.load.i5.i89 = load i32, ptr %__sp, align 4
  %bf.lshr.i.i90 = and i32 %bf.load.i5.i89, -2
  call void @_ZdlPvj(ptr noundef %7, i32 noundef %bf.lshr.i.i90) #29
  br label %_ZNSt3__112basic_stringIcNS_11char_traitsIcEENS_9allocatorIcEEED2Ev.exit91

_ZNSt3__112basic_stringIcNS_11char_traitsIcEENS_9allocatorIcEEED2Ev.exit91: ; preds = %cleanup, %if.then.i87
  call void @llvm.lifetime.end.p0(ptr %__sp)
  br label %return

if.end26:                                         ; preds = %_ZNSt3__112basic_stringIcNS_11char_traitsIcEENS_9allocatorIcEEED2Ev.exit83, %if.end15
  %sub.ptr.sub29 = sub i32 %sub.ptr.lhs.cast, %sub.ptr.lhs.cast4
  %cmp30 = icmp sgt i32 %sub.ptr.sub29, 0
  br i1 %cmp30, label %if.then31, label %if.end38

if.then31:                                        ; preds = %if.end26
  %vtable.i92 = load ptr, ptr %coerce.val.ip, align 4, !tbaa !190
  %vfn.i93 = getelementptr inbounds i8, ptr %vtable.i92, i32 48
  %8 = load ptr, ptr %vfn.i93, align 4
  %call.i94 = call noundef i32 %8(ptr noundef nonnull align 4 dereferenceable(32) %coerce.val.ip, ptr noundef %__op, i32 noundef %sub.ptr.sub29)
  %cmp34.not = icmp eq i32 %call.i94, %sub.ptr.sub29
  br i1 %cmp34.not, label %if.end38, label %return

if.end38:                                         ; preds = %if.then31, %if.end26
  store i32 0, ptr %__width_.i, align 4, !tbaa !224
  br label %return

return:                                           ; preds = %if.end38, %if.then8, %_ZNSt3__112basic_stringIcNS_11char_traitsIcEENS_9allocatorIcEEED2Ev.exit91, %if.then31, %entry
  %retval.sroa.0.2 = phi i32 [ 0, %entry ], [ %__s.coerce, %if.end38 ], [ 0, %_ZNSt3__112basic_stringIcNS_11char_traitsIcEENS_9allocatorIcEEED2Ev.exit91 ], [ 0, %if.then8 ], [ 0, %if.then31 ]
  ret i32 %retval.sroa.0.2
}

declare void @_ZNSt3__18ios_base5clearEj(ptr noundef nonnull align 4 dereferenceable(72), i32 noundef) local_unnamed_addr #3

; Function Attrs: nounwind
declare void @_ZNSt3__113basic_ostreamIcNS_11char_traitsIcEEE6sentryD1Ev(ptr noundef nonnull align 4 dereferenceable(8)) unnamed_addr #4

declare ptr @__cxa_begin_catch(ptr) local_unnamed_addr

declare void @_ZNSt3__18ios_base33__set_badbit_and_consider_rethrowEv(ptr noundef nonnull align 4 dereferenceable(72)) local_unnamed_addr #3

declare void @__cxa_end_catch() local_unnamed_addr

; Function Attrs: noinline noreturn nounwind
define linkonce_odr hidden void @__clang_call_terminate(ptr noundef %0) local_unnamed_addr #19 comdat {
  %2 = tail call ptr @__cxa_begin_catch(ptr %0) #28
  tail call void @_ZSt9terminatev() #30
  unreachable
}

declare void @_ZSt9terminatev() local_unnamed_addr

; Function Attrs: mustprogress
define linkonce_odr hidden void @_ZNSt3__112basic_stringIcNS_11char_traitsIcEENS_9allocatorIcEEEC2B8ne190000Ejc(ptr noundef nonnull align 4 dereferenceable(12) %this, i32 noundef %__n, i8 noundef zeroext %__c) unnamed_addr #6 comdat align 2 personality ptr @__gxx_personality_v0 {
entry:
  %cmp.i = icmp ugt i32 %__n, -9
  br i1 %cmp.i, label %if.then.i, label %if.end.i

if.then.i:                                        ; preds = %entry
  tail call void @_ZNKSt3__112basic_stringIcNS_11char_traitsIcEENS_9allocatorIcEEE20__throw_length_errorB8ne190000Ev(ptr noundef nonnull align 4 dereferenceable(12) %this) #31
  unreachable

if.end.i:                                         ; preds = %entry
  %cmp.i.i = icmp ult i32 %__n, 11
  br i1 %cmp.i.i, label %if.end9.i, label %if.end9.thread.i

if.end9.thread.i:                                 ; preds = %if.end.i
  %sub.i.i = or i32 %__n, 7
  %add.i = add i32 %sub.i.i, 1
  %call.i5.i.i.i.i = tail call noalias noundef nonnull ptr @_Znwj(i32 noundef %add.i) #32
  %__data_.i23.i = getelementptr inbounds i8, ptr %this, i32 8
  store ptr %call.i5.i.i.i.i, ptr %__data_.i23.i, align 4, !tbaa !189
  %bf.set6.i.i = or disjoint i32 %add.i, 1
  store i32 %bf.set6.i.i, ptr %this, align 4
  %__size_.i.i = getelementptr inbounds i8, ptr %this, i32 4
  store i32 %__n, ptr %__size_.i.i, align 4, !tbaa !189
  br label %for.body.preheader.i.i.i.i

if.end9.i:                                        ; preds = %if.end.i
  %conv.i.i = trunc nuw i32 %__n to i8
  %bf.value.i.i = shl nuw nsw i8 %conv.i.i, 1
  store i8 %bf.value.i.i, ptr %this, align 4
  %__data_.i.i = getelementptr inbounds i8, ptr %this, i32 1
  %cmp.not4.i.i.i.i = icmp eq i32 %__n, 0
  br i1 %cmp.not4.i.i.i.i, label %_ZNSt3__112basic_stringIcNS_11char_traitsIcEENS_9allocatorIcEEE6__initEjc.exit, label %for.body.preheader.i.i.i.i

for.body.preheader.i.i.i.i:                       ; preds = %if.end9.i, %if.end9.thread.i
  %__p.026.i = phi ptr [ %call.i5.i.i.i.i, %if.end9.thread.i ], [ %__data_.i.i, %if.end9.i ]
  tail call void @llvm.memset.p0.i32(ptr nonnull align 1 %__p.026.i, i8 %__c, i32 %__n, i1 false), !tbaa !189
  br label %_ZNSt3__112basic_stringIcNS_11char_traitsIcEENS_9allocatorIcEEE6__initEjc.exit

_ZNSt3__112basic_stringIcNS_11char_traitsIcEENS_9allocatorIcEEE6__initEjc.exit: ; preds = %if.end9.i, %for.body.preheader.i.i.i.i
  %__p.027.i = phi ptr [ %__data_.i.i, %if.end9.i ], [ %__p.026.i, %for.body.preheader.i.i.i.i ]
  %arrayidx.i = getelementptr inbounds i8, ptr %__p.027.i, i32 %__n
  store i8 0, ptr %arrayidx.i, align 1, !tbaa !189
  ret void
}

; Function Attrs: mustprogress noreturn
define linkonce_odr hidden void @_ZNKSt3__112basic_stringIcNS_11char_traitsIcEENS_9allocatorIcEEE20__throw_length_errorB8ne190000Ev(ptr noundef nonnull align 4 dereferenceable(12) %this) local_unnamed_addr #13 comdat align 2 {
entry:
  tail call void @_ZNSt3__120__throw_length_errorB8ne190000EPKc(ptr noundef nonnull @.str.36) #31
  unreachable
}

declare void @_ZNSt3__18ios_base4initEPv(ptr noundef nonnull align 4 dereferenceable(72), ptr noundef) local_unnamed_addr #3

declare void @_ZNSt3__115basic_streambufIcNS_11char_traitsIcEEEC2Ev(ptr noundef nonnull align 4 dereferenceable(32)) unnamed_addr #3

; Function Attrs: nocallback nofree nosync nounwind willreturn
declare void @llvm.va_start.p0(ptr) #20

; Function Attrs: nofree nounwind
declare noundef i32 @vsnprintf(ptr noundef captures(none), i32 noundef, ptr noundef readonly captures(none), ptr noundef) local_unnamed_addr #21

; Function Attrs: nocallback nofree nosync nounwind willreturn
declare void @llvm.va_end.p0(ptr) #20

declare extern_weak void @HAP_debug(ptr noundef, i32 noundef, ptr noundef, i32 noundef) local_unnamed_addr #3

; Function Attrs: mustprogress nounwind
define hidden void @_ZN8VtcmPoolD2Ev(ptr noundef nonnull align 4 dereferenceable(40) %this) unnamed_addr #17 align 2 personality ptr @__gxx_personality_v0 {
entry:
  %tobool.not.i = icmp eq ptr @compute_resource_release, null
  br i1 %tobool.not.i, label %do.body2, label %if.then.i

if.then.i:                                        ; preds = %entry
  %contextId_ = getelementptr inbounds i8, ptr %this, i32 12
  %0 = load i32, ptr %contextId_, align 4, !tbaa !198
  %call.i12 = invoke i32 @compute_resource_release(i32 noundef %0)
          to label %invoke.cont unwind label %terminate.lpad

invoke.cont:                                      ; preds = %if.then.i
  %cmp.not = icmp eq i32 %call.i12, 0
  br i1 %cmp.not, label %if.end7, label %do.body2

do.body2:                                         ; preds = %entry, %invoke.cont
  %retval.0.i15 = phi i32 [ %call.i12, %invoke.cont ], [ -2147482620, %entry ]
  %cmp3 = icmp eq ptr null, @HAP_debug_v2
  br i1 %cmp3, label %if.then4, label %if.else

if.then4:                                         ; preds = %do.body2
  invoke void (i32, ptr, i32, ptr, ...) @_ZL13_HAP_debug_v2iPKciS0_z(i32 poison, ptr nonnull poison, i32 noundef 59, ptr noundef nonnull @.str.13, i32 noundef %retval.0.i15)
          to label %do.end unwind label %terminate.lpad

if.else:                                          ; preds = %do.body2
  invoke void (i32, ptr, i32, ptr, ...) @HAP_debug_v2(i32 noundef 3, ptr noundef nonnull @.str, i32 noundef 59, ptr noundef nonnull @.str.13, i32 noundef %retval.0.i15)
          to label %do.end unwind label %terminate.lpad

do.end:                                           ; preds = %if.else, %if.then4
  tail call void @abort() #30
  unreachable

if.end7:                                          ; preds = %invoke.cont
  %free_ = getelementptr inbounds i8, ptr %this, i32 28
  %1 = load ptr, ptr %free_, align 4, !tbaa !223
  %cmp.not.i.i = icmp eq ptr %1, null
  br i1 %cmp.not.i.i, label %_ZNSt3__16vectorINS_4pairIPcjEENS_9allocatorIS3_EEED2B8ne190000Ev.exit, label %if.then.i.i

if.then.i.i:                                      ; preds = %if.end7
  %__end_.i.i.i.i = getelementptr inbounds i8, ptr %this, i32 32
  store ptr %1, ptr %__end_.i.i.i.i, align 4, !tbaa !200
  %__end_cap_.i.i.i.i = getelementptr inbounds i8, ptr %this, i32 36
  %2 = load ptr, ptr %__end_cap_.i.i.i.i, align 4, !tbaa !201
  %sub.ptr.lhs.cast.i.i.i = ptrtoint ptr %2 to i32
  %sub.ptr.rhs.cast.i.i.i = ptrtoint ptr %1 to i32
  %sub.ptr.sub.i.i.i = sub i32 %sub.ptr.lhs.cast.i.i.i, %sub.ptr.rhs.cast.i.i.i
  tail call void @_ZdlPvj(ptr noundef nonnull %1, i32 noundef %sub.ptr.sub.i.i.i) #29
  br label %_ZNSt3__16vectorINS_4pairIPcjEENS_9allocatorIS3_EEED2B8ne190000Ev.exit

_ZNSt3__16vectorINS_4pairIPcjEENS_9allocatorIS3_EEED2B8ne190000Ev.exit: ; preds = %if.end7, %if.then.i.i
  %allocations_ = getelementptr inbounds i8, ptr %this, i32 16
  tail call void @_ZNSt3__16vectorINS_4pairIPcjEENS_9allocatorIS3_EEED2B8ne190000Ev(ptr noundef nonnull align 4 dereferenceable(12) %allocations_) #28
  ret void

terminate.lpad:                                   ; preds = %if.then.i, %if.else, %if.then4
  %3 = landingpad { ptr, i32 }
          catch ptr null
  %4 = extractvalue { ptr, i32 } %3, 0
  tail call void @__clang_call_terminate(ptr %4) #30
  unreachable
}

declare extern_weak i32 @compute_resource_release(i32 noundef) #3

; Function Attrs: mustprogress
define hidden noundef ptr @_ZN8VtcmPool8AllocateEj(ptr noundef nonnull align 4 dereferenceable(40) %this, i32 noundef %nbytes) local_unnamed_addr #6 align 2 personality ptr @__gxx_personality_v0 {
entry:
  %oss = alloca %"class.std::__1::basic_ostringstream", align 4
  %ref.tmp = alloca %"class.std::__1::basic_string", align 4
  %oss10 = alloca %"class.std::__1::basic_ostringstream", align 4
  %ref.tmp14 = alloca %"class.std::__1::basic_string", align 4
  %oss33 = alloca %"class.std::__1::basic_ostringstream", align 4
  %ref.tmp37 = alloca %"class.std::__1::basic_string", align 4
  %oss108 = alloca %"class.std::__1::basic_ostringstream", align 4
  %ref.tmp112 = alloca %"class.std::__1::basic_string", align 4
  %ref.tmp132 = alloca %"struct.std::__1::pair", align 4
  %free_ = getelementptr inbounds i8, ptr %this, i32 28
  %0 = load ptr, ptr %free_, align 4, !tbaa !223
  %__end_.i = getelementptr inbounds i8, ptr %this, i32 32
  %1 = load ptr, ptr %__end_.i, align 4, !tbaa !200
  %cmp.i = icmp eq ptr %0, %1
  br i1 %cmp.i, label %if.then, label %if.end

if.then:                                          ; preds = %entry
  call void @llvm.lifetime.start.p0(ptr %oss)
  call void @_ZNSt3__119basic_ostringstreamIcNS_11char_traitsIcEENS_9allocatorIcEEEC1B8ne190000Ev(ptr noundef nonnull align 4 dereferenceable(56) %oss)
  %call1.i178 = invoke noundef nonnull align 4 dereferenceable(4) ptr @_ZNSt3__124__put_character_sequenceB8ne190000IcNS_11char_traitsIcEEEERNS_13basic_ostreamIT_T0_EES7_PKS4_j(ptr noundef nonnull align 4 dereferenceable(4) %oss, ptr noundef nonnull @.str.14, i32 noundef 14)
          to label %invoke.cont unwind label %lpad

invoke.cont:                                      ; preds = %if.then
  call void @llvm.lifetime.start.p0(ptr %ref.tmp)
  %__sb_.i = getelementptr inbounds i8, ptr %oss, i32 4
  invoke void @_ZNKSt3__115basic_stringbufIcNS_11char_traitsIcEENS_9allocatorIcEEE3strEv(ptr dead_on_unwind nonnull writable sret(%"class.std::__1::basic_string") align 4 %ref.tmp, ptr noundef nonnull align 4 dereferenceable(52) %__sb_.i)
          to label %invoke.cont4 unwind label %lpad3

invoke.cont4:                                     ; preds = %invoke.cont
  invoke void @_Z11CheckFailedPKcS0_iRKNSt3__112basic_stringIcNS1_11char_traitsIcEENS1_9allocatorIcEEEE(ptr noundef nonnull @.str.15, ptr noundef nonnull @.str, i32 noundef 63, ptr noundef nonnull align 4 dereferenceable(12) %ref.tmp)
          to label %invoke.cont6 unwind label %lpad5

invoke.cont6:                                     ; preds = %invoke.cont4
  %bf.load.i.i = load i8, ptr %ref.tmp, align 4
  %bf.clear.i.i = and i8 %bf.load.i.i, 1
  %tobool.i.not.i = icmp eq i8 %bf.clear.i.i, 0
  br i1 %tobool.i.not.i, label %_ZNSt3__112basic_stringIcNS_11char_traitsIcEENS_9allocatorIcEEED2Ev.exit, label %if.then.i

if.then.i:                                        ; preds = %invoke.cont6
  %__data_.i.i = getelementptr inbounds i8, ptr %ref.tmp, i32 8
  %2 = load ptr, ptr %__data_.i.i, align 4, !tbaa !189
  %bf.load.i5.i = load i32, ptr %ref.tmp, align 4
  %bf.lshr.i.i = and i32 %bf.load.i5.i, -2
  call void @_ZdlPvj(ptr noundef %2, i32 noundef %bf.lshr.i.i) #29
  br label %_ZNSt3__112basic_stringIcNS_11char_traitsIcEENS_9allocatorIcEEED2Ev.exit

_ZNSt3__112basic_stringIcNS_11char_traitsIcEENS_9allocatorIcEEED2Ev.exit: ; preds = %invoke.cont6, %if.then.i
  call void @llvm.lifetime.end.p0(ptr %ref.tmp)
  %3 = load ptr, ptr @_ZTTNSt3__119basic_ostringstreamIcNS_11char_traitsIcEENS_9allocatorIcEEEE, align 4
  store ptr %3, ptr %oss, align 4, !tbaa !190
  %4 = load ptr, ptr getelementptr inbounds (i8, ptr @_ZTTNSt3__119basic_ostringstreamIcNS_11char_traitsIcEENS_9allocatorIcEEEE, i32 12), align 4
  %vbase.offset.ptr.i.i = getelementptr i8, ptr %3, i32 -12
  %vbase.offset.i.i = load i32, ptr %vbase.offset.ptr.i.i, align 4
  %add.ptr.i.i = getelementptr inbounds i8, ptr %oss, i32 %vbase.offset.i.i
  store ptr %4, ptr %add.ptr.i.i, align 4, !tbaa !190
  store ptr getelementptr inbounds inrange(-8, 56) (i8, ptr @_ZTVNSt3__115basic_stringbufIcNS_11char_traitsIcEENS_9allocatorIcEEEE, i32 8), ptr %__sb_.i, align 4, !tbaa !190
  %__str_.i.i.i = getelementptr inbounds i8, ptr %oss, i32 36
  %bf.load.i.i.i.i.i = load i8, ptr %__str_.i.i.i, align 4
  %bf.clear.i.i.i.i.i = and i8 %bf.load.i.i.i.i.i, 1
  %tobool.i.not.i.i.i.i = icmp eq i8 %bf.clear.i.i.i.i.i, 0
  br i1 %tobool.i.not.i.i.i.i, label %_ZNSt3__119basic_ostringstreamIcNS_11char_traitsIcEENS_9allocatorIcEEED1Ev.exit, label %if.then.i.i.i.i

if.then.i.i.i.i:                                  ; preds = %_ZNSt3__112basic_stringIcNS_11char_traitsIcEENS_9allocatorIcEEED2Ev.exit
  %__data_.i.i.i.i.i = getelementptr inbounds i8, ptr %oss, i32 44
  %5 = load ptr, ptr %__data_.i.i.i.i.i, align 4, !tbaa !189
  %bf.load.i5.i.i.i.i = load i32, ptr %__str_.i.i.i, align 4
  %bf.lshr.i.i.i.i.i = and i32 %bf.load.i5.i.i.i.i, -2
  call void @_ZdlPvj(ptr noundef %5, i32 noundef %bf.lshr.i.i.i.i.i) #29
  br label %_ZNSt3__119basic_ostringstreamIcNS_11char_traitsIcEENS_9allocatorIcEEED1Ev.exit

_ZNSt3__119basic_ostringstreamIcNS_11char_traitsIcEENS_9allocatorIcEEED1Ev.exit: ; preds = %_ZNSt3__112basic_stringIcNS_11char_traitsIcEENS_9allocatorIcEEED2Ev.exit, %if.then.i.i.i.i
  call void @_ZNSt3__115basic_streambufIcNS_11char_traitsIcEEED2Ev(ptr noundef nonnull align 4 dereferenceable(32) %__sb_.i) #28
  call void @_ZNSt3__113basic_ostreamIcNS_11char_traitsIcEEED2Ev(ptr noundef nonnull align 4 dereferenceable(4) %oss, ptr noundef nonnull getelementptr inbounds (i8, ptr @_ZTTNSt3__119basic_ostringstreamIcNS_11char_traitsIcEENS_9allocatorIcEEEE, i32 4)) #28
  %6 = getelementptr inbounds i8, ptr %oss, i32 56
  call void @_ZNSt3__19basic_iosIcNS_11char_traitsIcEEED2Ev(ptr noundef nonnull align 4 dereferenceable(80) %6) #28
  call void @llvm.lifetime.end.p0(ptr %oss)
  br label %if.end

lpad:                                             ; preds = %if.then
  %7 = landingpad { ptr, i32 }
          cleanup
  br label %ehcleanup7

lpad3:                                            ; preds = %invoke.cont
  %8 = landingpad { ptr, i32 }
          cleanup
  br label %ehcleanup

lpad5:                                            ; preds = %invoke.cont4
  %9 = landingpad { ptr, i32 }
          cleanup
  %bf.load.i.i179 = load i8, ptr %ref.tmp, align 4
  %bf.clear.i.i180 = and i8 %bf.load.i.i179, 1
  %tobool.i.not.i181 = icmp eq i8 %bf.clear.i.i180, 0
  br i1 %tobool.i.not.i181, label %ehcleanup, label %if.then.i182

if.then.i182:                                     ; preds = %lpad5
  %__data_.i.i183 = getelementptr inbounds i8, ptr %ref.tmp, i32 8
  %10 = load ptr, ptr %__data_.i.i183, align 4, !tbaa !189
  %bf.load.i5.i184 = load i32, ptr %ref.tmp, align 4
  %bf.lshr.i.i185 = and i32 %bf.load.i5.i184, -2
  call void @_ZdlPvj(ptr noundef %10, i32 noundef %bf.lshr.i.i185) #29
  br label %ehcleanup

ehcleanup:                                        ; preds = %if.then.i182, %lpad5, %lpad3
  %.pn = phi { ptr, i32 } [ %8, %lpad3 ], [ %9, %lpad5 ], [ %9, %if.then.i182 ]
  call void @llvm.lifetime.end.p0(ptr %ref.tmp)
  br label %ehcleanup7

ehcleanup7:                                       ; preds = %ehcleanup, %lpad
  %.pn.pn = phi { ptr, i32 } [ %.pn, %ehcleanup ], [ %7, %lpad ]
  call void @_ZNSt3__119basic_ostringstreamIcNS_11char_traitsIcEENS_9allocatorIcEEED1Ev(ptr noundef nonnull align 4 dereferenceable(56) %oss) #28
  call void @llvm.lifetime.end.p0(ptr %oss)
  br label %eh.resume

if.end:                                           ; preds = %_ZNSt3__119basic_ostringstreamIcNS_11char_traitsIcEENS_9allocatorIcEEED1Ev.exit, %entry
  %cmp = icmp ugt i32 %nbytes, 127
  br i1 %cmp, label %if.end23, label %if.then9

if.then9:                                         ; preds = %if.end
  call void @llvm.lifetime.start.p0(ptr %oss10)
  call void @_ZNSt3__119basic_ostringstreamIcNS_11char_traitsIcEENS_9allocatorIcEEEC1B8ne190000Ev(ptr noundef nonnull align 4 dereferenceable(56) %oss10)
  %call1.i188 = invoke noundef nonnull align 4 dereferenceable(4) ptr @_ZNSt3__124__put_character_sequenceB8ne190000IcNS_11char_traitsIcEEEERNS_13basic_ostreamIT_T0_EES7_PKS4_j(ptr noundef nonnull align 4 dereferenceable(4) %oss10, ptr noundef nonnull @.str.16, i32 noundef 62)
          to label %invoke.cont12 unwind label %lpad11

invoke.cont12:                                    ; preds = %if.then9
  call void @llvm.lifetime.start.p0(ptr %ref.tmp14)
  %__sb_.i190 = getelementptr inbounds i8, ptr %oss10, i32 4
  invoke void @_ZNKSt3__115basic_stringbufIcNS_11char_traitsIcEENS_9allocatorIcEEE3strEv(ptr dead_on_unwind nonnull writable sret(%"class.std::__1::basic_string") align 4 %ref.tmp14, ptr noundef nonnull align 4 dereferenceable(52) %__sb_.i190)
          to label %invoke.cont16 unwind label %lpad15

invoke.cont16:                                    ; preds = %invoke.cont12
  invoke void @_Z11CheckFailedPKcS0_iRKNSt3__112basic_stringIcNS1_11char_traitsIcEENS1_9allocatorIcEEEE(ptr noundef nonnull @.str.17, ptr noundef nonnull @.str, i32 noundef 65, ptr noundef nonnull align 4 dereferenceable(12) %ref.tmp14)
          to label %invoke.cont18 unwind label %lpad17

invoke.cont18:                                    ; preds = %invoke.cont16
  %bf.load.i.i192 = load i8, ptr %ref.tmp14, align 4
  %bf.clear.i.i193 = and i8 %bf.load.i.i192, 1
  %tobool.i.not.i194 = icmp eq i8 %bf.clear.i.i193, 0
  br i1 %tobool.i.not.i194, label %_ZNSt3__112basic_stringIcNS_11char_traitsIcEENS_9allocatorIcEEED2Ev.exit199, label %if.then.i195

if.then.i195:                                     ; preds = %invoke.cont18
  %__data_.i.i196 = getelementptr inbounds i8, ptr %ref.tmp14, i32 8
  %11 = load ptr, ptr %__data_.i.i196, align 4, !tbaa !189
  %bf.load.i5.i197 = load i32, ptr %ref.tmp14, align 4
  %bf.lshr.i.i198 = and i32 %bf.load.i5.i197, -2
  call void @_ZdlPvj(ptr noundef %11, i32 noundef %bf.lshr.i.i198) #29
  br label %_ZNSt3__112basic_stringIcNS_11char_traitsIcEENS_9allocatorIcEEED2Ev.exit199

_ZNSt3__112basic_stringIcNS_11char_traitsIcEENS_9allocatorIcEEED2Ev.exit199: ; preds = %invoke.cont18, %if.then.i195
  call void @llvm.lifetime.end.p0(ptr %ref.tmp14)
  %12 = load ptr, ptr @_ZTTNSt3__119basic_ostringstreamIcNS_11char_traitsIcEENS_9allocatorIcEEEE, align 4
  store ptr %12, ptr %oss10, align 4, !tbaa !190
  %13 = load ptr, ptr getelementptr inbounds (i8, ptr @_ZTTNSt3__119basic_ostringstreamIcNS_11char_traitsIcEENS_9allocatorIcEEEE, i32 12), align 4
  %vbase.offset.ptr.i.i200 = getelementptr i8, ptr %12, i32 -12
  %vbase.offset.i.i201 = load i32, ptr %vbase.offset.ptr.i.i200, align 4
  %add.ptr.i.i202 = getelementptr inbounds i8, ptr %oss10, i32 %vbase.offset.i.i201
  store ptr %13, ptr %add.ptr.i.i202, align 4, !tbaa !190
  store ptr getelementptr inbounds inrange(-8, 56) (i8, ptr @_ZTVNSt3__115basic_stringbufIcNS_11char_traitsIcEENS_9allocatorIcEEEE, i32 8), ptr %__sb_.i190, align 4, !tbaa !190
  %__str_.i.i.i204 = getelementptr inbounds i8, ptr %oss10, i32 36
  %bf.load.i.i.i.i.i205 = load i8, ptr %__str_.i.i.i204, align 4
  %bf.clear.i.i.i.i.i206 = and i8 %bf.load.i.i.i.i.i205, 1
  %tobool.i.not.i.i.i.i207 = icmp eq i8 %bf.clear.i.i.i.i.i206, 0
  br i1 %tobool.i.not.i.i.i.i207, label %_ZNSt3__119basic_ostringstreamIcNS_11char_traitsIcEENS_9allocatorIcEEED1Ev.exit212, label %if.then.i.i.i.i208

if.then.i.i.i.i208:                               ; preds = %_ZNSt3__112basic_stringIcNS_11char_traitsIcEENS_9allocatorIcEEED2Ev.exit199
  %__data_.i.i.i.i.i209 = getelementptr inbounds i8, ptr %oss10, i32 44
  %14 = load ptr, ptr %__data_.i.i.i.i.i209, align 4, !tbaa !189
  %bf.load.i5.i.i.i.i210 = load i32, ptr %__str_.i.i.i204, align 4
  %bf.lshr.i.i.i.i.i211 = and i32 %bf.load.i5.i.i.i.i210, -2
  call void @_ZdlPvj(ptr noundef %14, i32 noundef %bf.lshr.i.i.i.i.i211) #29
  br label %_ZNSt3__119basic_ostringstreamIcNS_11char_traitsIcEENS_9allocatorIcEEED1Ev.exit212

_ZNSt3__119basic_ostringstreamIcNS_11char_traitsIcEENS_9allocatorIcEEED1Ev.exit212: ; preds = %_ZNSt3__112basic_stringIcNS_11char_traitsIcEENS_9allocatorIcEEED2Ev.exit199, %if.then.i.i.i.i208
  call void @_ZNSt3__115basic_streambufIcNS_11char_traitsIcEEED2Ev(ptr noundef nonnull align 4 dereferenceable(32) %__sb_.i190) #28
  call void @_ZNSt3__113basic_ostreamIcNS_11char_traitsIcEEED2Ev(ptr noundef nonnull align 4 dereferenceable(4) %oss10, ptr noundef nonnull getelementptr inbounds (i8, ptr @_ZTTNSt3__119basic_ostringstreamIcNS_11char_traitsIcEENS_9allocatorIcEEEE, i32 4)) #28
  %15 = getelementptr inbounds i8, ptr %oss10, i32 56
  call void @_ZNSt3__19basic_iosIcNS_11char_traitsIcEEED2Ev(ptr noundef nonnull align 4 dereferenceable(80) %15) #28
  call void @llvm.lifetime.end.p0(ptr %oss10)
  br label %if.end23

lpad11:                                           ; preds = %if.then9
  %16 = landingpad { ptr, i32 }
          cleanup
  br label %ehcleanup21

lpad15:                                           ; preds = %invoke.cont12
  %17 = landingpad { ptr, i32 }
          cleanup
  br label %ehcleanup20

lpad17:                                           ; preds = %invoke.cont16
  %18 = landingpad { ptr, i32 }
          cleanup
  %bf.load.i.i213 = load i8, ptr %ref.tmp14, align 4
  %bf.clear.i.i214 = and i8 %bf.load.i.i213, 1
  %tobool.i.not.i215 = icmp eq i8 %bf.clear.i.i214, 0
  br i1 %tobool.i.not.i215, label %ehcleanup20, label %if.then.i216

if.then.i216:                                     ; preds = %lpad17
  %__data_.i.i217 = getelementptr inbounds i8, ptr %ref.tmp14, i32 8
  %19 = load ptr, ptr %__data_.i.i217, align 4, !tbaa !189
  %bf.load.i5.i218 = load i32, ptr %ref.tmp14, align 4
  %bf.lshr.i.i219 = and i32 %bf.load.i5.i218, -2
  call void @_ZdlPvj(ptr noundef %19, i32 noundef %bf.lshr.i.i219) #29
  br label %ehcleanup20

ehcleanup20:                                      ; preds = %if.then.i216, %lpad17, %lpad15
  %.pn168 = phi { ptr, i32 } [ %17, %lpad15 ], [ %18, %lpad17 ], [ %18, %if.then.i216 ]
  call void @llvm.lifetime.end.p0(ptr %ref.tmp14)
  br label %ehcleanup21

ehcleanup21:                                      ; preds = %ehcleanup20, %lpad11
  %.pn168.pn = phi { ptr, i32 } [ %.pn168, %ehcleanup20 ], [ %16, %lpad11 ]
  call void @_ZNSt3__119basic_ostringstreamIcNS_11char_traitsIcEENS_9allocatorIcEEED1Ev(ptr noundef nonnull align 4 dereferenceable(56) %oss10) #28
  call void @llvm.lifetime.end.p0(ptr %oss10)
  br label %eh.resume

if.end23:                                         ; preds = %_ZNSt3__119basic_ostringstreamIcNS_11char_traitsIcEENS_9allocatorIcEEED1Ev.exit212, %if.end
  %and = and i32 %nbytes, 2047
  %tobool.not = icmp eq i32 %and, 0
  br i1 %tobool.not, label %if.end67, label %if.then24

if.then24:                                        ; preds = %if.end23
  %20 = load ptr, ptr %__end_.i, align 4, !tbaa !200
  %incdec.ptr.i.i = getelementptr inbounds i8, ptr %20, i32 -8
  %second = getelementptr inbounds i8, ptr %20, i32 -4
  %21 = load i32, ptr %second, align 4, !tbaa !225
  %cmp31.not = icmp ult i32 %21, %nbytes
  br i1 %cmp31.not, label %if.then32, label %if.end46

if.then32:                                        ; preds = %if.then24
  call void @llvm.lifetime.start.p0(ptr %oss33)
  call void @_ZNSt3__119basic_ostringstreamIcNS_11char_traitsIcEENS_9allocatorIcEEEC1B8ne190000Ev(ptr noundef nonnull align 4 dereferenceable(56) %oss33)
  %call1.i223 = invoke noundef nonnull align 4 dereferenceable(4) ptr @_ZNSt3__124__put_character_sequenceB8ne190000IcNS_11char_traitsIcEEEERNS_13basic_ostreamIT_T0_EES7_PKS4_j(ptr noundef nonnull align 4 dereferenceable(4) %oss33, ptr noundef nonnull @.str.18, i32 noundef 57)
          to label %invoke.cont35 unwind label %lpad34

invoke.cont35:                                    ; preds = %if.then32
  call void @llvm.lifetime.start.p0(ptr %ref.tmp37)
  %__sb_.i225 = getelementptr inbounds i8, ptr %oss33, i32 4
  invoke void @_ZNKSt3__115basic_stringbufIcNS_11char_traitsIcEENS_9allocatorIcEEE3strEv(ptr dead_on_unwind nonnull writable sret(%"class.std::__1::basic_string") align 4 %ref.tmp37, ptr noundef nonnull align 4 dereferenceable(52) %__sb_.i225)
          to label %invoke.cont39 unwind label %lpad38

invoke.cont39:                                    ; preds = %invoke.cont35
  invoke void @_Z11CheckFailedPKcS0_iRKNSt3__112basic_stringIcNS1_11char_traitsIcEENS1_9allocatorIcEEEE(ptr noundef nonnull @.str.19, ptr noundef nonnull @.str, i32 noundef 72, ptr noundef nonnull align 4 dereferenceable(12) %ref.tmp37)
          to label %invoke.cont41 unwind label %lpad40

invoke.cont41:                                    ; preds = %invoke.cont39
  %bf.load.i.i227 = load i8, ptr %ref.tmp37, align 4
  %bf.clear.i.i228 = and i8 %bf.load.i.i227, 1
  %tobool.i.not.i229 = icmp eq i8 %bf.clear.i.i228, 0
  br i1 %tobool.i.not.i229, label %_ZNSt3__112basic_stringIcNS_11char_traitsIcEENS_9allocatorIcEEED2Ev.exit234, label %if.then.i230

if.then.i230:                                     ; preds = %invoke.cont41
  %__data_.i.i231 = getelementptr inbounds i8, ptr %ref.tmp37, i32 8
  %22 = load ptr, ptr %__data_.i.i231, align 4, !tbaa !189
  %bf.load.i5.i232 = load i32, ptr %ref.tmp37, align 4
  %bf.lshr.i.i233 = and i32 %bf.load.i5.i232, -2
  call void @_ZdlPvj(ptr noundef %22, i32 noundef %bf.lshr.i.i233) #29
  br label %_ZNSt3__112basic_stringIcNS_11char_traitsIcEENS_9allocatorIcEEED2Ev.exit234

_ZNSt3__112basic_stringIcNS_11char_traitsIcEENS_9allocatorIcEEED2Ev.exit234: ; preds = %invoke.cont41, %if.then.i230
  call void @llvm.lifetime.end.p0(ptr %ref.tmp37)
  %23 = load ptr, ptr @_ZTTNSt3__119basic_ostringstreamIcNS_11char_traitsIcEENS_9allocatorIcEEEE, align 4
  store ptr %23, ptr %oss33, align 4, !tbaa !190
  %24 = load ptr, ptr getelementptr inbounds (i8, ptr @_ZTTNSt3__119basic_ostringstreamIcNS_11char_traitsIcEENS_9allocatorIcEEEE, i32 12), align 4
  %vbase.offset.ptr.i.i235 = getelementptr i8, ptr %23, i32 -12
  %vbase.offset.i.i236 = load i32, ptr %vbase.offset.ptr.i.i235, align 4
  %add.ptr.i.i237 = getelementptr inbounds i8, ptr %oss33, i32 %vbase.offset.i.i236
  store ptr %24, ptr %add.ptr.i.i237, align 4, !tbaa !190
  store ptr getelementptr inbounds inrange(-8, 56) (i8, ptr @_ZTVNSt3__115basic_stringbufIcNS_11char_traitsIcEENS_9allocatorIcEEEE, i32 8), ptr %__sb_.i225, align 4, !tbaa !190
  %__str_.i.i.i239 = getelementptr inbounds i8, ptr %oss33, i32 36
  %bf.load.i.i.i.i.i240 = load i8, ptr %__str_.i.i.i239, align 4
  %bf.clear.i.i.i.i.i241 = and i8 %bf.load.i.i.i.i.i240, 1
  %tobool.i.not.i.i.i.i242 = icmp eq i8 %bf.clear.i.i.i.i.i241, 0
  br i1 %tobool.i.not.i.i.i.i242, label %_ZNSt3__119basic_ostringstreamIcNS_11char_traitsIcEENS_9allocatorIcEEED1Ev.exit247, label %if.then.i.i.i.i243

if.then.i.i.i.i243:                               ; preds = %_ZNSt3__112basic_stringIcNS_11char_traitsIcEENS_9allocatorIcEEED2Ev.exit234
  %__data_.i.i.i.i.i244 = getelementptr inbounds i8, ptr %oss33, i32 44
  %25 = load ptr, ptr %__data_.i.i.i.i.i244, align 4, !tbaa !189
  %bf.load.i5.i.i.i.i245 = load i32, ptr %__str_.i.i.i239, align 4
  %bf.lshr.i.i.i.i.i246 = and i32 %bf.load.i5.i.i.i.i245, -2
  call void @_ZdlPvj(ptr noundef %25, i32 noundef %bf.lshr.i.i.i.i.i246) #29
  br label %_ZNSt3__119basic_ostringstreamIcNS_11char_traitsIcEENS_9allocatorIcEEED1Ev.exit247

_ZNSt3__119basic_ostringstreamIcNS_11char_traitsIcEENS_9allocatorIcEEED1Ev.exit247: ; preds = %_ZNSt3__112basic_stringIcNS_11char_traitsIcEENS_9allocatorIcEEED2Ev.exit234, %if.then.i.i.i.i243
  call void @_ZNSt3__115basic_streambufIcNS_11char_traitsIcEEED2Ev(ptr noundef nonnull align 4 dereferenceable(32) %__sb_.i225) #28
  call void @_ZNSt3__113basic_ostreamIcNS_11char_traitsIcEEED2Ev(ptr noundef nonnull align 4 dereferenceable(4) %oss33, ptr noundef nonnull getelementptr inbounds (i8, ptr @_ZTTNSt3__119basic_ostringstreamIcNS_11char_traitsIcEENS_9allocatorIcEEEE, i32 4)) #28
  %26 = getelementptr inbounds i8, ptr %oss33, i32 56
  call void @_ZNSt3__19basic_iosIcNS_11char_traitsIcEEED2Ev(ptr noundef nonnull align 4 dereferenceable(80) %26) #28
  call void @llvm.lifetime.end.p0(ptr %oss33)
  %.pre = load i32, ptr %second, align 4, !tbaa !225
  br label %if.end46

lpad34:                                           ; preds = %if.then32
  %27 = landingpad { ptr, i32 }
          cleanup
  br label %ehcleanup44

lpad38:                                           ; preds = %invoke.cont35
  %28 = landingpad { ptr, i32 }
          cleanup
  br label %ehcleanup43

lpad40:                                           ; preds = %invoke.cont39
  %29 = landingpad { ptr, i32 }
          cleanup
  %bf.load.i.i248 = load i8, ptr %ref.tmp37, align 4
  %bf.clear.i.i249 = and i8 %bf.load.i.i248, 1
  %tobool.i.not.i250 = icmp eq i8 %bf.clear.i.i249, 0
  br i1 %tobool.i.not.i250, label %ehcleanup43, label %if.then.i251

if.then.i251:                                     ; preds = %lpad40
  %__data_.i.i252 = getelementptr inbounds i8, ptr %ref.tmp37, i32 8
  %30 = load ptr, ptr %__data_.i.i252, align 4, !tbaa !189
  %bf.load.i5.i253 = load i32, ptr %ref.tmp37, align 4
  %bf.lshr.i.i254 = and i32 %bf.load.i5.i253, -2
  call void @_ZdlPvj(ptr noundef %30, i32 noundef %bf.lshr.i.i254) #29
  br label %ehcleanup43

ehcleanup43:                                      ; preds = %if.then.i251, %lpad40, %lpad38
  %.pn174 = phi { ptr, i32 } [ %28, %lpad38 ], [ %29, %lpad40 ], [ %29, %if.then.i251 ]
  call void @llvm.lifetime.end.p0(ptr %ref.tmp37)
  br label %ehcleanup44

ehcleanup44:                                      ; preds = %ehcleanup43, %lpad34
  %.pn174.pn = phi { ptr, i32 } [ %.pn174, %ehcleanup43 ], [ %27, %lpad34 ]
  call void @_ZNSt3__119basic_ostringstreamIcNS_11char_traitsIcEENS_9allocatorIcEEED1Ev(ptr noundef nonnull align 4 dereferenceable(56) %oss33) #28
  call void @llvm.lifetime.end.p0(ptr %oss33)
  br label %eh.resume

if.end46:                                         ; preds = %_ZNSt3__119basic_ostringstreamIcNS_11char_traitsIcEENS_9allocatorIcEEED1Ev.exit247, %if.then24
  %31 = phi i32 [ %.pre, %_ZNSt3__119basic_ostringstreamIcNS_11char_traitsIcEENS_9allocatorIcEEED1Ev.exit247 ], [ %21, %if.then24 ]
  %32 = load ptr, ptr %incdec.ptr.i.i, align 4, !tbaa !227
  %sub = sub i32 %31, %nbytes
  %add.ptr = getelementptr inbounds i8, ptr %32, i32 %sub
  %allocations_ = getelementptr inbounds i8, ptr %this, i32 16
  %__end_.i256 = getelementptr inbounds i8, ptr %this, i32 20
  %33 = load ptr, ptr %__end_.i256, align 4, !tbaa !200
  %__end_cap_.i.i = getelementptr inbounds i8, ptr %this, i32 24
  %34 = load ptr, ptr %__end_cap_.i.i, align 4, !tbaa !201
  %cmp.i257 = icmp ult ptr %33, %34
  br i1 %cmp.i257, label %if.then.i258, label %if.else.i

if.then.i258:                                     ; preds = %if.end46
  %35 = ptrtoint ptr %add.ptr to i32
  store i32 %35, ptr %33, align 4
  %.sroa_idx = getelementptr inbounds i8, ptr %33, i32 4
  store i32 %nbytes, ptr %.sroa_idx, align 4
  %incdec.ptr.i.i259 = getelementptr inbounds i8, ptr %33, i32 8
  br label %_ZNSt3__16vectorINS_4pairIPcjEENS_9allocatorIS3_EEE12emplace_backIJS3_EEERS3_DpOT_.exit

if.else.i:                                        ; preds = %if.end46
  %36 = load ptr, ptr %allocations_, align 4, !tbaa !201
  %sub.ptr.lhs.cast.i.i.i = ptrtoint ptr %33 to i32
  %sub.ptr.rhs.cast.i.i.i = ptrtoint ptr %36 to i32
  %sub.ptr.sub.i.i.i = sub i32 %sub.ptr.lhs.cast.i.i.i, %sub.ptr.rhs.cast.i.i.i
  %sub.ptr.div.i.i.i = ashr exact i32 %sub.ptr.sub.i.i.i, 3
  %add.i.i = add nsw i32 %sub.ptr.div.i.i.i, 1
  %cmp.i.i.i = icmp ugt i32 %add.i.i, 536870911
  br i1 %cmp.i.i.i, label %if.then.i.i.i, label %_ZNKSt3__16vectorINS_4pairIPcjEENS_9allocatorIS3_EEE11__recommendB8ne190000Ej.exit.i.i

if.then.i.i.i:                                    ; preds = %if.else.i
  call void @_ZNKSt3__16vectorINS_4pairIPcjEENS_9allocatorIS3_EEE20__throw_length_errorB8ne190000Ev(ptr noundef nonnull align 4 dereferenceable(12) %allocations_) #31
  unreachable

_ZNKSt3__16vectorINS_4pairIPcjEENS_9allocatorIS3_EEE11__recommendB8ne190000Ej.exit.i.i: ; preds = %if.else.i
  %sub.ptr.lhs.cast.i.i.i.i = ptrtoint ptr %34 to i32
  %sub.ptr.sub.i.i.i.i = sub i32 %sub.ptr.lhs.cast.i.i.i.i, %sub.ptr.rhs.cast.i.i.i
  %cmp3.not.i.i.i = icmp ult i32 %sub.ptr.sub.i.i.i.i, 2147483640
  %mul.i.i.i = lshr exact i32 %sub.ptr.sub.i.i.i.i, 2
  %37 = call i32 @llvm.umax.i32(i32 %mul.i.i.i, i32 %add.i.i)
  %retval.0.i.i.i = select i1 %cmp3.not.i.i.i, i32 %37, i32 536870911
  %cmp.i17.i.i = icmp eq i32 %retval.0.i.i.i, 0
  br i1 %cmp.i17.i.i, label %_ZNSt3__114__split_bufferINS_4pairIPcjEERNS_9allocatorIS3_EEE17__destruct_at_endB8ne190000EPS3_.exit.i.i.i, label %if.else.i.i.i

if.else.i.i.i:                                    ; preds = %_ZNKSt3__16vectorINS_4pairIPcjEENS_9allocatorIS3_EEE11__recommendB8ne190000Ej.exit.i.i
  %cmp.i.i.i.i.i = icmp ugt i32 %retval.0.i.i.i, 536870911
  br i1 %cmp.i.i.i.i.i, label %if.then.i.i.i.i.i, label %_ZNSt3__119__allocate_at_leastB8ne190000INS_9allocatorINS_4pairIPcjEEEEEENS_19__allocation_resultINS_16allocator_traitsIT_E7pointerEEERS8_j.exit.i.i.i

if.then.i.i.i.i.i:                                ; preds = %if.else.i.i.i
  call void @_ZSt28__throw_bad_array_new_lengthB8ne190000v() #31
  unreachable

_ZNSt3__119__allocate_at_leastB8ne190000INS_9allocatorINS_4pairIPcjEEEEEENS_19__allocation_resultINS_16allocator_traitsIT_E7pointerEEERS8_j.exit.i.i.i: ; preds = %if.else.i.i.i
  %mul.i.i.i.i.i = shl nuw i32 %retval.0.i.i.i, 3
  %call.i5.i.i.i.i.i.i = call noalias noundef nonnull ptr @_Znwj(i32 noundef %mul.i.i.i.i.i) #32
  br label %_ZNSt3__114__split_bufferINS_4pairIPcjEERNS_9allocatorIS3_EEE17__destruct_at_endB8ne190000EPS3_.exit.i.i.i

_ZNSt3__114__split_bufferINS_4pairIPcjEERNS_9allocatorIS3_EEE17__destruct_at_endB8ne190000EPS3_.exit.i.i.i: ; preds = %_ZNSt3__119__allocate_at_leastB8ne190000INS_9allocatorINS_4pairIPcjEEEEEENS_19__allocation_resultINS_16allocator_traitsIT_E7pointerEEERS8_j.exit.i.i.i, %_ZNKSt3__16vectorINS_4pairIPcjEENS_9allocatorIS3_EEE11__recommendB8ne190000Ej.exit.i.i
  %storemerge.i.i.i = phi ptr [ %call.i5.i.i.i.i.i.i, %_ZNSt3__119__allocate_at_leastB8ne190000INS_9allocatorINS_4pairIPcjEEEEEENS_19__allocation_resultINS_16allocator_traitsIT_E7pointerEEERS8_j.exit.i.i.i ], [ null, %_ZNKSt3__16vectorINS_4pairIPcjEENS_9allocatorIS3_EEE11__recommendB8ne190000Ej.exit.i.i ]
  %add.ptr.i.i.i = getelementptr inbounds %"struct.std::__1::pair", ptr %storemerge.i.i.i, i32 %sub.ptr.div.i.i.i
  %add.ptr6.i.i.i = getelementptr inbounds %"struct.std::__1::pair", ptr %storemerge.i.i.i, i32 %retval.0.i.i.i
  %38 = ptrtoint ptr %add.ptr to i32
  store i32 %38, ptr %add.ptr.i.i.i, align 4
  %add.ptr.i.i.i.sroa_idx = getelementptr inbounds i8, ptr %add.ptr.i.i.i, i32 4
  store i32 %nbytes, ptr %add.ptr.i.i.i.sroa_idx, align 4
  %incdec.ptr.i9.i = getelementptr inbounds i8, ptr %add.ptr.i.i.i, i32 8
  call void @llvm.memcpy.p0.p0.i32(ptr align 4 %storemerge.i.i.i, ptr align 4 %36, i32 %sub.ptr.sub.i.i.i, i1 false)
  store ptr %storemerge.i.i.i, ptr %allocations_, align 4, !tbaa !201
  store ptr %incdec.ptr.i9.i, ptr %__end_.i256, align 4, !tbaa !201
  store ptr %add.ptr6.i.i.i, ptr %__end_cap_.i.i, align 4, !tbaa !201
  %tobool.not.i.i.i = icmp eq ptr %36, null
  br i1 %tobool.not.i.i.i, label %_ZNSt3__16vectorINS_4pairIPcjEENS_9allocatorIS3_EEE12emplace_backIJS3_EEERS3_DpOT_.exit, label %if.then.i26.i.i

if.then.i26.i.i:                                  ; preds = %_ZNSt3__114__split_bufferINS_4pairIPcjEERNS_9allocatorIS3_EEE17__destruct_at_endB8ne190000EPS3_.exit.i.i.i
  call void @_ZdlPvj(ptr noundef nonnull %36, i32 noundef %sub.ptr.sub.i.i.i.i) #29
  br label %_ZNSt3__16vectorINS_4pairIPcjEENS_9allocatorIS3_EEE12emplace_backIJS3_EEERS3_DpOT_.exit

_ZNSt3__16vectorINS_4pairIPcjEENS_9allocatorIS3_EEE12emplace_backIJS3_EEERS3_DpOT_.exit: ; preds = %if.then.i258, %_ZNSt3__114__split_bufferINS_4pairIPcjEERNS_9allocatorIS3_EEE17__destruct_at_endB8ne190000EPS3_.exit.i.i.i, %if.then.i26.i.i
  %__end.0.i = phi ptr [ %incdec.ptr.i.i259, %if.then.i258 ], [ %incdec.ptr.i9.i, %_ZNSt3__114__split_bufferINS_4pairIPcjEERNS_9allocatorIS3_EEE17__destruct_at_endB8ne190000EPS3_.exit.i.i.i ], [ %incdec.ptr.i9.i, %if.then.i26.i.i ]
  store ptr %__end.0.i, ptr %__end_.i256, align 4, !tbaa !200
  %39 = load i32, ptr %second, align 4, !tbaa !225
  %sub54 = sub i32 %39, %nbytes
  store i32 %sub54, ptr %second, align 4, !tbaa !225
  %cmp57 = icmp eq i32 %39, %nbytes
  br i1 %cmp57, label %if.then58, label %return

if.then58:                                        ; preds = %_ZNSt3__16vectorINS_4pairIPcjEENS_9allocatorIS3_EEE12emplace_backIJS3_EEERS3_DpOT_.exit
  %coerce.val.pi = ptrtoint ptr %incdec.ptr.i.i to i32
  %40 = load ptr, ptr %free_, align 4, !tbaa !223
  %sub.ptr.rhs.cast.i.i = ptrtoint ptr %40 to i32
  %sub.ptr.sub.i.i = sub i32 %coerce.val.pi, %sub.ptr.rhs.cast.i.i
  %add.ptr.i260 = getelementptr inbounds i8, ptr %40, i32 %sub.ptr.sub.i.i
  %add.ptr5.i = getelementptr inbounds i8, ptr %add.ptr.i260, i32 8
  %41 = load ptr, ptr %__end_.i, align 4, !tbaa !200
  %cmp.not10.i.i.i = icmp eq ptr %add.ptr5.i, %41
  br i1 %cmp.not10.i.i.i, label %_ZNSt3__16vectorINS_4pairIPcjEENS_9allocatorIS3_EEE5eraseB8ne190000ENS_11__wrap_iterIPKS3_EE.exit, label %while.body.i.i.i

while.body.i.i.i:                                 ; preds = %if.then58, %while.body.i.i.i
  %storemerge12.i.i.i = phi ptr [ %incdec.ptr3.i.i.i, %while.body.i.i.i ], [ %add.ptr.i260, %if.then58 ]
  %__first.addr.011.i.i.i = phi ptr [ %incdec.ptr.i.i.i, %while.body.i.i.i ], [ %add.ptr5.i, %if.then58 ]
  %42 = load ptr, ptr %__first.addr.011.i.i.i, align 4, !tbaa !201
  store ptr %42, ptr %storemerge12.i.i.i, align 4, !tbaa !227
  %second.i.i.i.i = getelementptr inbounds i8, ptr %__first.addr.011.i.i.i, i32 4
  %43 = load i32, ptr %second.i.i.i.i, align 4, !tbaa !184
  %second3.i.i.i.i = getelementptr inbounds i8, ptr %storemerge12.i.i.i, i32 4
  store i32 %43, ptr %second3.i.i.i.i, align 4, !tbaa !225
  %incdec.ptr.i.i.i = getelementptr inbounds i8, ptr %__first.addr.011.i.i.i, i32 8
  %incdec.ptr3.i.i.i = getelementptr inbounds i8, ptr %storemerge12.i.i.i, i32 8
  %cmp.not.i.i.i = icmp eq ptr %incdec.ptr.i.i.i, %41
  br i1 %cmp.not.i.i.i, label %_ZNSt3__16vectorINS_4pairIPcjEENS_9allocatorIS3_EEE5eraseB8ne190000ENS_11__wrap_iterIPKS3_EE.exit, label %while.body.i.i.i, !llvm.loop !228

_ZNSt3__16vectorINS_4pairIPcjEENS_9allocatorIS3_EEE5eraseB8ne190000ENS_11__wrap_iterIPKS3_EE.exit: ; preds = %while.body.i.i.i, %if.then58
  %storemerge.lcssa.i.i.i = phi ptr [ %add.ptr.i260, %if.then58 ], [ %incdec.ptr3.i.i.i, %while.body.i.i.i ]
  store ptr %storemerge.lcssa.i.i.i, ptr %__end_.i, align 4, !tbaa !200
  br label %return

if.end67:                                         ; preds = %if.end23
  %44 = load ptr, ptr %free_, align 4, !tbaa !223
  %45 = load ptr, ptr %__end_.i, align 4, !tbaa !200
  %cmp.i.i.not347 = icmp eq ptr %44, %45
  br i1 %cmp.i.i.not347, label %cleanup, label %for.body

for.body:                                         ; preds = %if.end67, %for.inc
  %storemerge349 = phi ptr [ %incdec.ptr.i.i267, %for.inc ], [ %44, %if.end67 ]
  %entryToAllocate.sroa.0.0348 = phi ptr [ %entryToAllocate.sroa.0.1, %for.inc ], [ %44, %if.end67 ]
  %second83 = getelementptr inbounds i8, ptr %entryToAllocate.sroa.0.0348, i32 4
  %46 = load i32, ptr %second83, align 4, !tbaa !225
  %cmp84 = icmp ult i32 %46, %nbytes
  br i1 %cmp84, label %for.body.land.lhs.true_crit_edge, label %lor.lhs.false

for.body.land.lhs.true_crit_edge:                 ; preds = %for.body
  %second91.phi.trans.insert = getelementptr inbounds i8, ptr %storemerge349, i32 4
  %.pre351 = load i32, ptr %second91.phi.trans.insert, align 4, !tbaa !225
  br label %land.lhs.true

lor.lhs.false:                                    ; preds = %for.body
  %second86 = getelementptr inbounds i8, ptr %storemerge349, i32 4
  %47 = load i32, ptr %second86, align 4, !tbaa !225
  %cmp89 = icmp ult i32 %47, %46
  br i1 %cmp89, label %land.lhs.true, label %for.inc

land.lhs.true:                                    ; preds = %for.body.land.lhs.true_crit_edge, %lor.lhs.false
  %48 = phi i32 [ %.pre351, %for.body.land.lhs.true_crit_edge ], [ %47, %lor.lhs.false ]
  %cmp92.not = icmp ult i32 %48, %nbytes
  br i1 %cmp92.not, label %for.inc, label %if.then93

if.then93:                                        ; preds = %land.lhs.true
  %cmp96 = icmp eq i32 %48, %nbytes
  br i1 %cmp96, label %cleanup, label %for.inc

for.inc:                                          ; preds = %lor.lhs.false, %land.lhs.true, %if.then93
  %entryToAllocate.sroa.0.1 = phi ptr [ %entryToAllocate.sroa.0.0348, %land.lhs.true ], [ %storemerge349, %if.then93 ], [ %entryToAllocate.sroa.0.0348, %lor.lhs.false ]
  %incdec.ptr.i.i267 = getelementptr inbounds i8, ptr %storemerge349, i32 8
  %cmp.i.i.not = icmp eq ptr %incdec.ptr.i.i267, %45
  br i1 %cmp.i.i.not, label %cleanup, label %for.body, !llvm.loop !229

cleanup:                                          ; preds = %for.inc, %if.then93, %if.end67
  %entryToAllocate.sroa.0.2 = phi ptr [ %44, %if.end67 ], [ %entryToAllocate.sroa.0.1, %for.inc ], [ %storemerge349, %if.then93 ]
  %second105 = getelementptr inbounds i8, ptr %entryToAllocate.sroa.0.2, i32 4
  %49 = load i32, ptr %second105, align 4, !tbaa !225
  %cmp106.not = icmp ult i32 %49, %nbytes
  br i1 %cmp106.not, label %if.then107, label %if.end121

if.then107:                                       ; preds = %cleanup
  call void @llvm.lifetime.start.p0(ptr %oss108)
  call void @_ZNSt3__119basic_ostringstreamIcNS_11char_traitsIcEENS_9allocatorIcEEEC1B8ne190000Ev(ptr noundef nonnull align 4 dereferenceable(56) %oss108)
  %call1.i270 = invoke noundef nonnull align 4 dereferenceable(4) ptr @_ZNSt3__124__put_character_sequenceB8ne190000IcNS_11char_traitsIcEEEERNS_13basic_ostreamIT_T0_EES7_PKS4_j(ptr noundef nonnull align 4 dereferenceable(4) %oss108, ptr noundef nonnull @.str.20, i32 noundef 46)
          to label %invoke.cont110 unwind label %lpad109

invoke.cont110:                                   ; preds = %if.then107
  call void @llvm.lifetime.start.p0(ptr %ref.tmp112)
  %__sb_.i272 = getelementptr inbounds i8, ptr %oss108, i32 4
  invoke void @_ZNKSt3__115basic_stringbufIcNS_11char_traitsIcEENS_9allocatorIcEEE3strEv(ptr dead_on_unwind nonnull writable sret(%"class.std::__1::basic_string") align 4 %ref.tmp112, ptr noundef nonnull align 4 dereferenceable(52) %__sb_.i272)
          to label %invoke.cont114 unwind label %lpad113

invoke.cont114:                                   ; preds = %invoke.cont110
  invoke void @_Z11CheckFailedPKcS0_iRKNSt3__112basic_stringIcNS1_11char_traitsIcEENS1_9allocatorIcEEEE(ptr noundef nonnull @.str.21, ptr noundef nonnull @.str, i32 noundef 94, ptr noundef nonnull align 4 dereferenceable(12) %ref.tmp112)
          to label %invoke.cont116 unwind label %lpad115

invoke.cont116:                                   ; preds = %invoke.cont114
  %bf.load.i.i274 = load i8, ptr %ref.tmp112, align 4
  %bf.clear.i.i275 = and i8 %bf.load.i.i274, 1
  %tobool.i.not.i276 = icmp eq i8 %bf.clear.i.i275, 0
  br i1 %tobool.i.not.i276, label %_ZNSt3__112basic_stringIcNS_11char_traitsIcEENS_9allocatorIcEEED2Ev.exit281, label %if.then.i277

if.then.i277:                                     ; preds = %invoke.cont116
  %__data_.i.i278 = getelementptr inbounds i8, ptr %ref.tmp112, i32 8
  %50 = load ptr, ptr %__data_.i.i278, align 4, !tbaa !189
  %bf.load.i5.i279 = load i32, ptr %ref.tmp112, align 4
  %bf.lshr.i.i280 = and i32 %bf.load.i5.i279, -2
  call void @_ZdlPvj(ptr noundef %50, i32 noundef %bf.lshr.i.i280) #29
  br label %_ZNSt3__112basic_stringIcNS_11char_traitsIcEENS_9allocatorIcEEED2Ev.exit281

_ZNSt3__112basic_stringIcNS_11char_traitsIcEENS_9allocatorIcEEED2Ev.exit281: ; preds = %invoke.cont116, %if.then.i277
  call void @llvm.lifetime.end.p0(ptr %ref.tmp112)
  %51 = load ptr, ptr @_ZTTNSt3__119basic_ostringstreamIcNS_11char_traitsIcEENS_9allocatorIcEEEE, align 4
  store ptr %51, ptr %oss108, align 4, !tbaa !190
  %52 = load ptr, ptr getelementptr inbounds (i8, ptr @_ZTTNSt3__119basic_ostringstreamIcNS_11char_traitsIcEENS_9allocatorIcEEEE, i32 12), align 4
  %vbase.offset.ptr.i.i282 = getelementptr i8, ptr %51, i32 -12
  %vbase.offset.i.i283 = load i32, ptr %vbase.offset.ptr.i.i282, align 4
  %add.ptr.i.i284 = getelementptr inbounds i8, ptr %oss108, i32 %vbase.offset.i.i283
  store ptr %52, ptr %add.ptr.i.i284, align 4, !tbaa !190
  store ptr getelementptr inbounds inrange(-8, 56) (i8, ptr @_ZTVNSt3__115basic_stringbufIcNS_11char_traitsIcEENS_9allocatorIcEEEE, i32 8), ptr %__sb_.i272, align 4, !tbaa !190
  %__str_.i.i.i286 = getelementptr inbounds i8, ptr %oss108, i32 36
  %bf.load.i.i.i.i.i287 = load i8, ptr %__str_.i.i.i286, align 4
  %bf.clear.i.i.i.i.i288 = and i8 %bf.load.i.i.i.i.i287, 1
  %tobool.i.not.i.i.i.i289 = icmp eq i8 %bf.clear.i.i.i.i.i288, 0
  br i1 %tobool.i.not.i.i.i.i289, label %_ZNSt3__119basic_ostringstreamIcNS_11char_traitsIcEENS_9allocatorIcEEED1Ev.exit294, label %if.then.i.i.i.i290

if.then.i.i.i.i290:                               ; preds = %_ZNSt3__112basic_stringIcNS_11char_traitsIcEENS_9allocatorIcEEED2Ev.exit281
  %__data_.i.i.i.i.i291 = getelementptr inbounds i8, ptr %oss108, i32 44
  %53 = load ptr, ptr %__data_.i.i.i.i.i291, align 4, !tbaa !189
  %bf.load.i5.i.i.i.i292 = load i32, ptr %__str_.i.i.i286, align 4
  %bf.lshr.i.i.i.i.i293 = and i32 %bf.load.i5.i.i.i.i292, -2
  call void @_ZdlPvj(ptr noundef %53, i32 noundef %bf.lshr.i.i.i.i.i293) #29
  br label %_ZNSt3__119basic_ostringstreamIcNS_11char_traitsIcEENS_9allocatorIcEEED1Ev.exit294

_ZNSt3__119basic_ostringstreamIcNS_11char_traitsIcEENS_9allocatorIcEEED1Ev.exit294: ; preds = %_ZNSt3__112basic_stringIcNS_11char_traitsIcEENS_9allocatorIcEEED2Ev.exit281, %if.then.i.i.i.i290
  call void @_ZNSt3__115basic_streambufIcNS_11char_traitsIcEEED2Ev(ptr noundef nonnull align 4 dereferenceable(32) %__sb_.i272) #28
  call void @_ZNSt3__113basic_ostreamIcNS_11char_traitsIcEEED2Ev(ptr noundef nonnull align 4 dereferenceable(4) %oss108, ptr noundef nonnull getelementptr inbounds (i8, ptr @_ZTTNSt3__119basic_ostringstreamIcNS_11char_traitsIcEENS_9allocatorIcEEEE, i32 4)) #28
  %54 = getelementptr inbounds i8, ptr %oss108, i32 56
  call void @_ZNSt3__19basic_iosIcNS_11char_traitsIcEEED2Ev(ptr noundef nonnull align 4 dereferenceable(80) %54) #28
  call void @llvm.lifetime.end.p0(ptr %oss108)
  br label %if.end121

lpad109:                                          ; preds = %if.then107
  %55 = landingpad { ptr, i32 }
          cleanup
  br label %ehcleanup119

lpad113:                                          ; preds = %invoke.cont110
  %56 = landingpad { ptr, i32 }
          cleanup
  br label %ehcleanup118

lpad115:                                          ; preds = %invoke.cont114
  %57 = landingpad { ptr, i32 }
          cleanup
  %bf.load.i.i295 = load i8, ptr %ref.tmp112, align 4
  %bf.clear.i.i296 = and i8 %bf.load.i.i295, 1
  %tobool.i.not.i297 = icmp eq i8 %bf.clear.i.i296, 0
  br i1 %tobool.i.not.i297, label %ehcleanup118, label %if.then.i298

if.then.i298:                                     ; preds = %lpad115
  %__data_.i.i299 = getelementptr inbounds i8, ptr %ref.tmp112, i32 8
  %58 = load ptr, ptr %__data_.i.i299, align 4, !tbaa !189
  %bf.load.i5.i300 = load i32, ptr %ref.tmp112, align 4
  %bf.lshr.i.i301 = and i32 %bf.load.i5.i300, -2
  call void @_ZdlPvj(ptr noundef %58, i32 noundef %bf.lshr.i.i301) #29
  br label %ehcleanup118

ehcleanup118:                                     ; preds = %if.then.i298, %lpad115, %lpad113
  %.pn171 = phi { ptr, i32 } [ %56, %lpad113 ], [ %57, %lpad115 ], [ %57, %if.then.i298 ]
  call void @llvm.lifetime.end.p0(ptr %ref.tmp112)
  br label %ehcleanup119

ehcleanup119:                                     ; preds = %ehcleanup118, %lpad109
  %.pn171.pn = phi { ptr, i32 } [ %.pn171, %ehcleanup118 ], [ %55, %lpad109 ]
  call void @_ZNSt3__119basic_ostringstreamIcNS_11char_traitsIcEENS_9allocatorIcEEED1Ev(ptr noundef nonnull align 4 dereferenceable(56) %oss108) #28
  call void @llvm.lifetime.end.p0(ptr %oss108)
  br label %eh.resume

if.end121:                                        ; preds = %_ZNSt3__119basic_ostringstreamIcNS_11char_traitsIcEENS_9allocatorIcEEED1Ev.exit294, %cleanup
  %59 = load ptr, ptr %entryToAllocate.sroa.0.2, align 4, !tbaa !227
  %allocations_125 = getelementptr inbounds i8, ptr %this, i32 16
  %__end_.i303 = getelementptr inbounds i8, ptr %this, i32 20
  %60 = load ptr, ptr %__end_.i303, align 4, !tbaa !200
  call void @llvm.lifetime.start.p0(ptr %ref.tmp132)
  store ptr %59, ptr %ref.tmp132, align 4, !tbaa !227
  %second.i305 = getelementptr inbounds i8, ptr %ref.tmp132, i32 4
  store i32 %nbytes, ptr %second.i305, align 4, !tbaa !225
  %coerce.val.pi134 = ptrtoint ptr %60 to i32
  %call135 = call i32 @_ZNSt3__16vectorINS_4pairIPcjEENS_9allocatorIS3_EEE7emplaceIJS3_EEENS_11__wrap_iterIPS3_EENS8_IPKS3_EEDpOT_(ptr noundef nonnull align 4 dereferenceable(12) %allocations_125, i32 %coerce.val.pi134, ptr noundef nonnull align 4 dereferenceable(8) %ref.tmp132)
  call void @llvm.lifetime.end.p0(ptr %ref.tmp132)
  %61 = load i32, ptr %second105, align 4, !tbaa !225
  %cmp141 = icmp eq i32 %61, %nbytes
  br i1 %cmp141, label %if.then142, label %if.else

if.then142:                                       ; preds = %if.end121
  %coerce.val.pi146 = ptrtoint ptr %entryToAllocate.sroa.0.2 to i32
  %62 = load ptr, ptr %free_, align 4, !tbaa !223
  %sub.ptr.rhs.cast.i.i306 = ptrtoint ptr %62 to i32
  %sub.ptr.sub.i.i307 = sub i32 %coerce.val.pi146, %sub.ptr.rhs.cast.i.i306
  %add.ptr.i308 = getelementptr inbounds i8, ptr %62, i32 %sub.ptr.sub.i.i307
  %add.ptr5.i309 = getelementptr inbounds i8, ptr %add.ptr.i308, i32 8
  %63 = load ptr, ptr %__end_.i, align 4, !tbaa !200
  %cmp.not10.i.i.i311 = icmp eq ptr %add.ptr5.i309, %63
  br i1 %cmp.not10.i.i.i311, label %_ZNSt3__16vectorINS_4pairIPcjEENS_9allocatorIS3_EEE5eraseB8ne190000ENS_11__wrap_iterIPKS3_EE.exit321, label %while.body.i.i.i312

while.body.i.i.i312:                              ; preds = %if.then142, %while.body.i.i.i312
  %storemerge12.i.i.i313 = phi ptr [ %incdec.ptr3.i.i.i318, %while.body.i.i.i312 ], [ %add.ptr.i308, %if.then142 ]
  %__first.addr.011.i.i.i314 = phi ptr [ %incdec.ptr.i.i.i317, %while.body.i.i.i312 ], [ %add.ptr5.i309, %if.then142 ]
  %64 = load ptr, ptr %__first.addr.011.i.i.i314, align 4, !tbaa !201
  store ptr %64, ptr %storemerge12.i.i.i313, align 4, !tbaa !227
  %second.i.i.i.i315 = getelementptr inbounds i8, ptr %__first.addr.011.i.i.i314, i32 4
  %65 = load i32, ptr %second.i.i.i.i315, align 4, !tbaa !184
  %second3.i.i.i.i316 = getelementptr inbounds i8, ptr %storemerge12.i.i.i313, i32 4
  store i32 %65, ptr %second3.i.i.i.i316, align 4, !tbaa !225
  %incdec.ptr.i.i.i317 = getelementptr inbounds i8, ptr %__first.addr.011.i.i.i314, i32 8
  %incdec.ptr3.i.i.i318 = getelementptr inbounds i8, ptr %storemerge12.i.i.i313, i32 8
  %cmp.not.i.i.i319 = icmp eq ptr %incdec.ptr.i.i.i317, %63
  br i1 %cmp.not.i.i.i319, label %_ZNSt3__16vectorINS_4pairIPcjEENS_9allocatorIS3_EEE5eraseB8ne190000ENS_11__wrap_iterIPKS3_EE.exit321, label %while.body.i.i.i312, !llvm.loop !228

_ZNSt3__16vectorINS_4pairIPcjEENS_9allocatorIS3_EEE5eraseB8ne190000ENS_11__wrap_iterIPKS3_EE.exit321: ; preds = %while.body.i.i.i312, %if.then142
  %storemerge.lcssa.i.i.i320 = phi ptr [ %add.ptr.i308, %if.then142 ], [ %incdec.ptr3.i.i.i318, %while.body.i.i.i312 ]
  store ptr %storemerge.lcssa.i.i.i320, ptr %__end_.i, align 4, !tbaa !200
  br label %return

if.else:                                          ; preds = %if.end121
  %66 = load ptr, ptr %entryToAllocate.sroa.0.2, align 4, !tbaa !227
  %add.ptr153 = getelementptr inbounds i8, ptr %66, i32 %nbytes
  store ptr %add.ptr153, ptr %entryToAllocate.sroa.0.2, align 4, !tbaa !227
  %sub158 = sub i32 %61, %nbytes
  store i32 %sub158, ptr %second105, align 4, !tbaa !225
  br label %return

return:                                           ; preds = %_ZNSt3__16vectorINS_4pairIPcjEENS_9allocatorIS3_EEE5eraseB8ne190000ENS_11__wrap_iterIPKS3_EE.exit321, %if.else, %_ZNSt3__16vectorINS_4pairIPcjEENS_9allocatorIS3_EEE12emplace_backIJS3_EEERS3_DpOT_.exit, %_ZNSt3__16vectorINS_4pairIPcjEENS_9allocatorIS3_EEE5eraseB8ne190000ENS_11__wrap_iterIPKS3_EE.exit
  %retval.0 = phi ptr [ %add.ptr, %_ZNSt3__16vectorINS_4pairIPcjEENS_9allocatorIS3_EEE5eraseB8ne190000ENS_11__wrap_iterIPKS3_EE.exit ], [ %add.ptr, %_ZNSt3__16vectorINS_4pairIPcjEENS_9allocatorIS3_EEE12emplace_backIJS3_EEERS3_DpOT_.exit ], [ %59, %if.else ], [ %59, %_ZNSt3__16vectorINS_4pairIPcjEENS_9allocatorIS3_EEE5eraseB8ne190000ENS_11__wrap_iterIPKS3_EE.exit321 ]
  ret ptr %retval.0

eh.resume:                                        ; preds = %ehcleanup119, %ehcleanup44, %ehcleanup21, %ehcleanup7
  %.pn174.pn.pn = phi { ptr, i32 } [ %.pn174.pn, %ehcleanup44 ], [ %.pn171.pn, %ehcleanup119 ], [ %.pn168.pn, %ehcleanup21 ], [ %.pn.pn, %ehcleanup7 ]
  resume { ptr, i32 } %.pn174.pn.pn
}

; Function Attrs: mustprogress
define linkonce_odr hidden i32 @_ZNSt3__16vectorINS_4pairIPcjEENS_9allocatorIS3_EEE7emplaceIJS3_EEENS_11__wrap_iterIPS3_EENS8_IPKS3_EEDpOT_(ptr noundef nonnull align 4 dereferenceable(12) %this, i32 %__position.coerce, ptr noundef nonnull align 4 dereferenceable(8) %__args) local_unnamed_addr #6 comdat align 2 personality ptr @__gxx_personality_v0 {
entry:
  %__v = alloca %"struct.std::__1::__split_buffer", align 4
  %0 = load ptr, ptr %this, align 4, !tbaa !223
  %sub.ptr.rhs.cast.i = ptrtoint ptr %0 to i32
  %sub.ptr.sub.i = sub i32 %__position.coerce, %sub.ptr.rhs.cast.i
  %add.ptr = getelementptr inbounds i8, ptr %0, i32 %sub.ptr.sub.i
  %__end_ = getelementptr inbounds i8, ptr %this, i32 4
  %1 = load ptr, ptr %__end_, align 4, !tbaa !200
  %__end_cap_.i = getelementptr inbounds i8, ptr %this, i32 8
  %2 = load ptr, ptr %__end_cap_.i, align 4, !tbaa !201
  %cmp = icmp ult ptr %1, %2
  br i1 %cmp, label %if.then, label %if.else15

if.then:                                          ; preds = %entry
  %cmp7 = icmp eq ptr %add.ptr, %1
  br i1 %cmp7, label %if.then8, label %if.else

if.then8:                                         ; preds = %if.then
  %3 = load i64, ptr %__args, align 4
  store i64 %3, ptr %1, align 4
  %incdec.ptr.i = getelementptr inbounds i8, ptr %1, i32 8
  store ptr %incdec.ptr.i, ptr %__end_, align 4, !tbaa !200
  br label %if.end24

if.else:                                          ; preds = %if.then
  %4 = load i32, ptr %__args, align 4
  %__args.sroa_idx = getelementptr inbounds i8, ptr %__args, i32 4
  %5 = load i32, ptr %__args.sroa_idx, align 4
  %6 = inttoptr i32 %4 to ptr
  %add.ptr11 = getelementptr inbounds i8, ptr %add.ptr, i32 8
  %sub.ptr.lhs.cast.i40 = ptrtoint ptr %1 to i32
  %sub.ptr.rhs.cast.i41 = ptrtoint ptr %add.ptr11 to i32
  %sub.ptr.sub.i42 = sub i32 %sub.ptr.lhs.cast.i40, %sub.ptr.rhs.cast.i41
  %add.ptr.i = getelementptr inbounds i8, ptr %add.ptr, i32 %sub.ptr.sub.i42
  %cmp26.i = icmp ult ptr %add.ptr.i, %1
  br i1 %cmp26.i, label %for.body.i.preheader, label %for.cond.cleanup.i

for.body.i.preheader:                             ; preds = %if.else
  %incdec.ptr7.i = getelementptr inbounds i8, ptr %1, i32 8
  %7 = load i64, ptr %add.ptr.i, align 4
  store i64 %7, ptr %1, align 4
  br label %for.cond.cleanup.i

for.cond.cleanup.i:                               ; preds = %for.body.i.preheader, %if.else
  %__tx.sroa.4.0.lcssa.i = phi ptr [ %1, %if.else ], [ %incdec.ptr7.i, %for.body.i.preheader ]
  store ptr %__tx.sroa.4.0.lcssa.i, ptr %__end_, align 4, !tbaa !200
  %cmp.not8.i.i = icmp eq ptr %1, %add.ptr11
  br i1 %cmp.not8.i.i, label %_ZNSt3__124__copy_move_unwrap_itersB8ne190000INS_20__move_backward_implINS_17_ClassicAlgPolicyEEEPNS_4pairIPcjEES7_S7_TnNS_9enable_ifIXsr12__can_rewrapIT0_T2_EE5valueEiE4typeELi0EEENS4_IS9_SA_EES9_T1_SA_.exit, label %while.body.i.i

while.body.i.i:                                   ; preds = %for.cond.cleanup.i, %while.body.i.i
  %__result.addr.010.i.i = phi ptr [ %incdec.ptr3.i.i, %while.body.i.i ], [ %1, %for.cond.cleanup.i ]
  %__last_iter.09.i.i = phi ptr [ %incdec.ptr.i.i, %while.body.i.i ], [ %add.ptr.i, %for.cond.cleanup.i ]
  %incdec.ptr.i.i = getelementptr inbounds i8, ptr %__last_iter.09.i.i, i32 -8
  %incdec.ptr3.i.i = getelementptr inbounds i8, ptr %__result.addr.010.i.i, i32 -8
  %8 = load ptr, ptr %incdec.ptr.i.i, align 4, !tbaa !201
  store ptr %8, ptr %incdec.ptr3.i.i, align 4, !tbaa !227
  %second.i.i.i = getelementptr inbounds i8, ptr %__last_iter.09.i.i, i32 -4
  %9 = load i32, ptr %second.i.i.i, align 4, !tbaa !184
  %second3.i.i.i = getelementptr inbounds i8, ptr %__result.addr.010.i.i, i32 -4
  store i32 %9, ptr %second3.i.i.i, align 4, !tbaa !225
  %cmp.not.i.i = icmp eq ptr %incdec.ptr.i.i, %add.ptr
  br i1 %cmp.not.i.i, label %_ZNSt3__124__copy_move_unwrap_itersB8ne190000INS_20__move_backward_implINS_17_ClassicAlgPolicyEEEPNS_4pairIPcjEES7_S7_TnNS_9enable_ifIXsr12__can_rewrapIT0_T2_EE5valueEiE4typeELi0EEENS4_IS9_SA_EES9_T1_SA_.exit, label %while.body.i.i, !llvm.loop !230

_ZNSt3__124__copy_move_unwrap_itersB8ne190000INS_20__move_backward_implINS_17_ClassicAlgPolicyEEEPNS_4pairIPcjEES7_S7_TnNS_9enable_ifIXsr12__can_rewrapIT0_T2_EE5valueEiE4typeELi0EEENS4_IS9_SA_EES9_T1_SA_.exit: ; preds = %while.body.i.i, %for.cond.cleanup.i
  store ptr %6, ptr %add.ptr, align 4, !tbaa !227
  %second3.i = getelementptr inbounds i8, ptr %add.ptr, i32 4
  store i32 %5, ptr %second3.i, align 4, !tbaa !225
  br label %if.end24

if.else15:                                        ; preds = %entry
  call void @llvm.lifetime.start.p0(ptr %__v)
  %sub.ptr.lhs.cast.i47 = ptrtoint ptr %1 to i32
  %sub.ptr.sub.i49 = sub i32 %sub.ptr.lhs.cast.i47, %sub.ptr.rhs.cast.i
  %sub.ptr.div.i50 = ashr exact i32 %sub.ptr.sub.i49, 3
  %add = add nsw i32 %sub.ptr.div.i50, 1
  %cmp.i51 = icmp ugt i32 %add, 536870911
  br i1 %cmp.i51, label %if.then.i, label %_ZNKSt3__16vectorINS_4pairIPcjEENS_9allocatorIS3_EEE11__recommendB8ne190000Ej.exit

if.then.i:                                        ; preds = %if.else15
  tail call void @_ZNKSt3__16vectorINS_4pairIPcjEENS_9allocatorIS3_EEE20__throw_length_errorB8ne190000Ev(ptr noundef nonnull align 4 dereferenceable(12) %this) #31
  unreachable

_ZNKSt3__16vectorINS_4pairIPcjEENS_9allocatorIS3_EEE11__recommendB8ne190000Ej.exit: ; preds = %if.else15
  %sub.ptr.lhs.cast.i.i = ptrtoint ptr %2 to i32
  %sub.ptr.sub.i.i = sub i32 %sub.ptr.lhs.cast.i.i, %sub.ptr.rhs.cast.i
  %cmp3.not.i = icmp ult i32 %sub.ptr.sub.i.i, 2147483640
  %mul.i = lshr exact i32 %sub.ptr.sub.i.i, 2
  %10 = tail call i32 @llvm.umax.i32(i32 %mul.i, i32 %add)
  %retval.0.i = select i1 %cmp3.not.i, i32 %10, i32 536870911
  %sub.ptr.div = ashr exact i32 %sub.ptr.sub.i, 3
  %__end_cap_.i52 = getelementptr inbounds i8, ptr %__v, i32 12
  %11 = getelementptr inbounds i8, ptr %__v, i32 16
  store ptr %__end_cap_.i, ptr %11, align 4, !tbaa !201
  %cmp.i53 = icmp eq i32 %retval.0.i, 0
  br i1 %cmp.i53, label %_ZNSt3__114__split_bufferINS_4pairIPcjEERNS_9allocatorIS3_EEEC2EjjS6_.exit, label %if.else.i

if.else.i:                                        ; preds = %_ZNKSt3__16vectorINS_4pairIPcjEENS_9allocatorIS3_EEE11__recommendB8ne190000Ej.exit
  %cmp.i.i.i = icmp ugt i32 %retval.0.i, 536870911
  br i1 %cmp.i.i.i, label %if.then.i.i.i, label %_ZNSt3__119__allocate_at_leastB8ne190000INS_9allocatorINS_4pairIPcjEEEEEENS_19__allocation_resultINS_16allocator_traitsIT_E7pointerEEERS8_j.exit.i

if.then.i.i.i:                                    ; preds = %if.else.i
  tail call void @_ZSt28__throw_bad_array_new_lengthB8ne190000v() #31
  unreachable

_ZNSt3__119__allocate_at_leastB8ne190000INS_9allocatorINS_4pairIPcjEEEEEENS_19__allocation_resultINS_16allocator_traitsIT_E7pointerEEERS8_j.exit.i: ; preds = %if.else.i
  %mul.i.i.i = shl nuw i32 %retval.0.i, 3
  %call.i5.i.i.i.i = tail call noalias noundef nonnull ptr @_Znwj(i32 noundef %mul.i.i.i) #32
  br label %_ZNSt3__114__split_bufferINS_4pairIPcjEERNS_9allocatorIS3_EEEC2EjjS6_.exit

_ZNSt3__114__split_bufferINS_4pairIPcjEERNS_9allocatorIS3_EEEC2EjjS6_.exit: ; preds = %_ZNKSt3__16vectorINS_4pairIPcjEENS_9allocatorIS3_EEE11__recommendB8ne190000Ej.exit, %_ZNSt3__119__allocate_at_leastB8ne190000INS_9allocatorINS_4pairIPcjEEEEEENS_19__allocation_resultINS_16allocator_traitsIT_E7pointerEEERS8_j.exit.i
  %storemerge.i = phi ptr [ %call.i5.i.i.i.i, %_ZNSt3__119__allocate_at_leastB8ne190000INS_9allocatorINS_4pairIPcjEEEEEENS_19__allocation_resultINS_16allocator_traitsIT_E7pointerEEERS8_j.exit.i ], [ null, %_ZNKSt3__16vectorINS_4pairIPcjEENS_9allocatorIS3_EEE11__recommendB8ne190000Ej.exit ]
  store ptr %storemerge.i, ptr %__v, align 4, !tbaa !231
  %add.ptr.i54 = getelementptr inbounds %"struct.std::__1::pair", ptr %storemerge.i, i32 %sub.ptr.div
  %__end_.i55 = getelementptr inbounds i8, ptr %__v, i32 8
  store ptr %add.ptr.i54, ptr %__end_.i55, align 4, !tbaa !235
  %__begin_.i = getelementptr inbounds i8, ptr %__v, i32 4
  store ptr %add.ptr.i54, ptr %__begin_.i, align 4, !tbaa !236
  %add.ptr6.i = getelementptr inbounds %"struct.std::__1::pair", ptr %storemerge.i, i32 %retval.0.i
  store ptr %add.ptr6.i, ptr %__end_cap_.i52, align 4, !tbaa !201
  invoke void @_ZNSt3__114__split_bufferINS_4pairIPcjEERNS_9allocatorIS3_EEE12emplace_backIJS3_EEEvDpOT_(ptr noundef nonnull align 4 dereferenceable(20) %__v, ptr noundef nonnull align 4 dereferenceable(8) %__args)
          to label %_ZNSt3__114__split_bufferINS_4pairIPcjEERNS_9allocatorIS3_EEE17__destruct_at_endB8ne190000EPS3_.exit.i unwind label %lpad20

_ZNSt3__114__split_bufferINS_4pairIPcjEERNS_9allocatorIS3_EEE17__destruct_at_endB8ne190000EPS3_.exit.i: ; preds = %_ZNSt3__114__split_bufferINS_4pairIPcjEERNS_9allocatorIS3_EEEC2EjjS6_.exit
  %12 = load ptr, ptr %__begin_.i, align 4, !tbaa !236
  %13 = load ptr, ptr %__end_, align 4, !tbaa !200
  %14 = load ptr, ptr %__end_.i55, align 4, !tbaa !235
  %sub.ptr.lhs.cast.i.i58 = ptrtoint ptr %13 to i32
  %sub.ptr.sub.i.i60 = sub i32 %sub.ptr.lhs.cast.i.i58, %__position.coerce
  call void @llvm.memcpy.p0.p0.i32(ptr align 4 %14, ptr align 4 %add.ptr, i32 %sub.ptr.sub.i.i60, i1 false)
  %15 = load ptr, ptr %__end_, align 4, !tbaa !200
  %sub.ptr.lhs.cast.i61 = ptrtoint ptr %15 to i32
  %sub.ptr.sub.i62 = sub i32 %sub.ptr.lhs.cast.i61, %__position.coerce
  %16 = load ptr, ptr %__end_.i55, align 4, !tbaa !235
  %add.ptr.i63 = getelementptr inbounds i8, ptr %16, i32 %sub.ptr.sub.i62
  store ptr %add.ptr.i63, ptr %__end_.i55, align 4, !tbaa !235
  store ptr %add.ptr, ptr %__end_, align 4, !tbaa !200
  %17 = load ptr, ptr %__begin_.i, align 4, !tbaa !236
  %18 = load ptr, ptr %this, align 4, !tbaa !223
  %sub.ptr.rhs.cast12.i = ptrtoint ptr %18 to i32
  %sub.ptr.sub13.i = sub i32 %__position.coerce, %sub.ptr.rhs.cast12.i
  %sub.ptr.div14.i = ashr exact i32 %sub.ptr.sub13.i, 3
  %idx.neg.i = sub nsw i32 0, %sub.ptr.div14.i
  %add.ptr15.i = getelementptr inbounds %"struct.std::__1::pair", ptr %17, i32 %idx.neg.i
  call void @llvm.memcpy.p0.p0.i32(ptr align 4 %add.ptr15.i, ptr align 4 %18, i32 %sub.ptr.sub13.i, i1 false)
  %19 = load ptr, ptr %this, align 4, !tbaa !201
  store ptr %add.ptr15.i, ptr %this, align 4, !tbaa !201
  store ptr %19, ptr %__begin_.i, align 4, !tbaa !201
  %20 = load ptr, ptr %__end_.i55, align 4, !tbaa !201
  store ptr %20, ptr %__end_, align 4, !tbaa !201
  store ptr %19, ptr %__end_.i55, align 4, !tbaa !201
  %21 = load ptr, ptr %__end_cap_.i, align 4, !tbaa !201
  %22 = load ptr, ptr %__end_cap_.i52, align 4, !tbaa !201
  store ptr %22, ptr %__end_cap_.i, align 4, !tbaa !201
  store ptr %21, ptr %__end_cap_.i52, align 4, !tbaa !201
  store ptr %19, ptr %__v, align 4, !tbaa !231
  %tobool.not.i = icmp eq ptr %19, null
  br i1 %tobool.not.i, label %_ZNSt3__114__split_bufferINS_4pairIPcjEERNS_9allocatorIS3_EEED2Ev.exit, label %if.then.i64

if.then.i64:                                      ; preds = %_ZNSt3__114__split_bufferINS_4pairIPcjEERNS_9allocatorIS3_EEE17__destruct_at_endB8ne190000EPS3_.exit.i
  %sub.ptr.lhs.cast.i.i66 = ptrtoint ptr %21 to i32
  %sub.ptr.rhs.cast.i.i67 = ptrtoint ptr %19 to i32
  %sub.ptr.sub.i.i68 = sub i32 %sub.ptr.lhs.cast.i.i66, %sub.ptr.rhs.cast.i.i67
  call void @_ZdlPvj(ptr noundef nonnull %19, i32 noundef %sub.ptr.sub.i.i68) #29
  br label %_ZNSt3__114__split_bufferINS_4pairIPcjEERNS_9allocatorIS3_EEED2Ev.exit

_ZNSt3__114__split_bufferINS_4pairIPcjEERNS_9allocatorIS3_EEED2Ev.exit: ; preds = %_ZNSt3__114__split_bufferINS_4pairIPcjEERNS_9allocatorIS3_EEE17__destruct_at_endB8ne190000EPS3_.exit.i, %if.then.i64
  call void @llvm.lifetime.end.p0(ptr %__v)
  %23 = ptrtoint ptr %12 to i32
  br label %if.end24

lpad20:                                           ; preds = %_ZNSt3__114__split_bufferINS_4pairIPcjEERNS_9allocatorIS3_EEEC2EjjS6_.exit
  %24 = landingpad { ptr, i32 }
          cleanup
  call void @_ZNSt3__114__split_bufferINS_4pairIPcjEERNS_9allocatorIS3_EEED2Ev(ptr noundef nonnull align 4 dereferenceable(20) %__v) #28
  call void @llvm.lifetime.end.p0(ptr %__v)
  resume { ptr, i32 } %24

if.end24:                                         ; preds = %if.then8, %_ZNSt3__124__copy_move_unwrap_itersB8ne190000INS_20__move_backward_implINS_17_ClassicAlgPolicyEEEPNS_4pairIPcjEES7_S7_TnNS_9enable_ifIXsr12__can_rewrapIT0_T2_EE5valueEiE4typeELi0EEENS4_IS9_SA_EES9_T1_SA_.exit, %_ZNSt3__114__split_bufferINS_4pairIPcjEERNS_9allocatorIS3_EEED2Ev.exit
  %__p.0 = phi i32 [ %__position.coerce, %if.then8 ], [ %__position.coerce, %_ZNSt3__124__copy_move_unwrap_itersB8ne190000INS_20__move_backward_implINS_17_ClassicAlgPolicyEEEPNS_4pairIPcjEES7_S7_TnNS_9enable_ifIXsr12__can_rewrapIT0_T2_EE5valueEiE4typeELi0EEENS4_IS9_SA_EES9_T1_SA_.exit ], [ %23, %_ZNSt3__114__split_bufferINS_4pairIPcjEERNS_9allocatorIS3_EEED2Ev.exit ]
  ret i32 %__p.0
}

; Function Attrs: mustprogress
define linkonce_odr hidden void @_ZNSt3__114__split_bufferINS_4pairIPcjEERNS_9allocatorIS3_EEE12emplace_backIJS3_EEEvDpOT_(ptr noundef nonnull align 4 dereferenceable(20) %this, ptr noundef nonnull align 4 dereferenceable(8) %__args) local_unnamed_addr #6 comdat align 2 personality ptr @__gxx_personality_v0 {
entry:
  %__end_ = getelementptr inbounds i8, ptr %this, i32 8
  %0 = load ptr, ptr %__end_, align 4, !tbaa !201
  %__end_cap_.i = getelementptr inbounds i8, ptr %this, i32 12
  %1 = load ptr, ptr %__end_cap_.i, align 4, !tbaa !201
  %cmp = icmp eq ptr %0, %1
  br i1 %cmp, label %if.then, label %if.end39

if.then:                                          ; preds = %entry
  %__begin_ = getelementptr inbounds i8, ptr %this, i32 4
  %2 = load ptr, ptr %__begin_, align 4, !tbaa !201
  %3 = load ptr, ptr %this, align 4, !tbaa !201
  %cmp2 = icmp ugt ptr %2, %3
  %sub.ptr.rhs.cast = ptrtoint ptr %3 to i32
  br i1 %cmp2, label %if.then3, label %if.else

if.then3:                                         ; preds = %if.then
  %sub.ptr.lhs.cast = ptrtoint ptr %2 to i32
  %sub.ptr.sub = sub i32 %sub.ptr.lhs.cast, %sub.ptr.rhs.cast
  %sub.ptr.div = ashr exact i32 %sub.ptr.sub, 3
  %add = add nsw i32 %sub.ptr.div, 1
  %div.neg = sdiv i32 %add, -2
  %add.ptr = getelementptr inbounds %"struct.std::__1::pair", ptr %2, i32 %div.neg
  %cmp.not10.i.i = icmp eq ptr %2, %0
  br i1 %cmp.not10.i.i, label %_ZNSt3__124__copy_move_unwrap_itersB8ne190000INS_11__move_implINS_17_ClassicAlgPolicyEEEPNS_4pairIPcjEES7_S7_TnNS_9enable_ifIXsr12__can_rewrapIT0_T2_EE5valueEiE4typeELi0EEENS4_IS9_SA_EES9_T1_SA_.exit, label %while.body.i.i

while.body.i.i:                                   ; preds = %if.then3, %while.body.i.i
  %storemerge12.i.i = phi ptr [ %incdec.ptr3.i.i, %while.body.i.i ], [ %add.ptr, %if.then3 ]
  %__first.addr.011.i.i = phi ptr [ %incdec.ptr.i.i, %while.body.i.i ], [ %2, %if.then3 ]
  %4 = load ptr, ptr %__first.addr.011.i.i, align 4, !tbaa !201
  store ptr %4, ptr %storemerge12.i.i, align 4, !tbaa !227
  %second.i.i.i = getelementptr inbounds i8, ptr %__first.addr.011.i.i, i32 4
  %5 = load i32, ptr %second.i.i.i, align 4, !tbaa !184
  %second3.i.i.i = getelementptr inbounds i8, ptr %storemerge12.i.i, i32 4
  store i32 %5, ptr %second3.i.i.i, align 4, !tbaa !225
  %incdec.ptr.i.i = getelementptr inbounds i8, ptr %__first.addr.011.i.i, i32 8
  %incdec.ptr3.i.i = getelementptr inbounds i8, ptr %storemerge12.i.i, i32 8
  %cmp.not.i.i = icmp eq ptr %incdec.ptr.i.i, %0
  br i1 %cmp.not.i.i, label %_ZNSt3__124__copy_move_unwrap_itersB8ne190000INS_11__move_implINS_17_ClassicAlgPolicyEEEPNS_4pairIPcjEES7_S7_TnNS_9enable_ifIXsr12__can_rewrapIT0_T2_EE5valueEiE4typeELi0EEENS4_IS9_SA_EES9_T1_SA_.exit, label %while.body.i.i, !llvm.loop !228

_ZNSt3__124__copy_move_unwrap_itersB8ne190000INS_11__move_implINS_17_ClassicAlgPolicyEEEPNS_4pairIPcjEES7_S7_TnNS_9enable_ifIXsr12__can_rewrapIT0_T2_EE5valueEiE4typeELi0EEENS4_IS9_SA_EES9_T1_SA_.exit: ; preds = %while.body.i.i, %if.then3
  %storemerge.lcssa.i.i = phi ptr [ %add.ptr, %if.then3 ], [ %incdec.ptr3.i.i, %while.body.i.i ]
  store ptr %storemerge.lcssa.i.i, ptr %__end_, align 4, !tbaa !235
  store ptr %add.ptr, ptr %__begin_, align 4, !tbaa !236
  br label %if.end39

if.else:                                          ; preds = %if.then
  %sub.ptr.lhs.cast16 = ptrtoint ptr %0 to i32
  %sub.ptr.sub18 = sub i32 %sub.ptr.lhs.cast16, %sub.ptr.rhs.cast
  %mul = ashr exact i32 %sub.ptr.sub18, 2
  %cmp.i.i.i = icmp eq ptr %0, %3
  %6 = select i1 %cmp.i.i.i, i32 1, i32 %mul
  %div2249 = lshr i32 %6, 2
  %cmp.i = icmp eq i32 %6, 0
  br i1 %cmp.i, label %_ZNSt3__114__split_bufferINS_4pairIPcjEERNS_9allocatorIS3_EEEC2EjjS6_.exit, label %if.else.i

if.else.i:                                        ; preds = %if.else
  %cmp.i.i.i52 = icmp ugt i32 %6, 536870911
  br i1 %cmp.i.i.i52, label %if.then.i.i.i, label %_ZNSt3__119__allocate_at_leastB8ne190000INS_9allocatorINS_4pairIPcjEEEEEENS_19__allocation_resultINS_16allocator_traitsIT_E7pointerEEERS8_j.exit.i

if.then.i.i.i:                                    ; preds = %if.else.i
  tail call void @_ZSt28__throw_bad_array_new_lengthB8ne190000v() #31
  unreachable

_ZNSt3__119__allocate_at_leastB8ne190000INS_9allocatorINS_4pairIPcjEEEEEENS_19__allocation_resultINS_16allocator_traitsIT_E7pointerEEERS8_j.exit.i: ; preds = %if.else.i
  %mul.i.i.i = shl nuw i32 %6, 3
  %call.i5.i.i.i.i = tail call noalias noundef nonnull ptr @_Znwj(i32 noundef %mul.i.i.i) #32
  br label %_ZNSt3__114__split_bufferINS_4pairIPcjEERNS_9allocatorIS3_EEEC2EjjS6_.exit

_ZNSt3__114__split_bufferINS_4pairIPcjEERNS_9allocatorIS3_EEEC2EjjS6_.exit: ; preds = %if.else, %_ZNSt3__119__allocate_at_leastB8ne190000INS_9allocatorINS_4pairIPcjEEEEEENS_19__allocation_resultINS_16allocator_traitsIT_E7pointerEEERS8_j.exit.i
  %storemerge.i = phi ptr [ %call.i5.i.i.i.i, %_ZNSt3__119__allocate_at_leastB8ne190000INS_9allocatorINS_4pairIPcjEEEEEENS_19__allocation_resultINS_16allocator_traitsIT_E7pointerEEERS8_j.exit.i ], [ null, %if.else ]
  %add.ptr.i = getelementptr %"struct.std::__1::pair", ptr %storemerge.i, i32 %div2249
  %add.ptr6.i = getelementptr inbounds %"struct.std::__1::pair", ptr %storemerge.i, i32 %6
  %coerce.val.pi = ptrtoint ptr %2 to i32
  %sub.ptr.sub.i.i.i.i = sub i32 %sub.ptr.lhs.cast16, %coerce.val.pi
  %add.ptr.i.i57 = getelementptr inbounds i8, ptr %add.ptr.i, i32 %sub.ptr.sub.i.i.i.i
  %cmp.not15.i = icmp eq ptr %0, %2
  br i1 %cmp.not15.i, label %_ZNSt3__114__split_bufferINS_4pairIPcjEERNS_9allocatorIS3_EEE17__destruct_at_endB8ne190000EPS3_.exit.i, label %for.body.i

for.body.i:                                       ; preds = %_ZNSt3__114__split_bufferINS_4pairIPcjEERNS_9allocatorIS3_EEEC2EjjS6_.exit, %for.body.i
  %__tx.sroa.0.017.i = phi ptr [ %incdec.ptr.i, %for.body.i ], [ %add.ptr.i, %_ZNSt3__114__split_bufferINS_4pairIPcjEERNS_9allocatorIS3_EEEC2EjjS6_.exit ]
  %__first.sroa.0.016.i = phi ptr [ %incdec.ptr.i.i58, %for.body.i ], [ %2, %_ZNSt3__114__split_bufferINS_4pairIPcjEERNS_9allocatorIS3_EEEC2EjjS6_.exit ]
  %7 = load i64, ptr %__first.sroa.0.016.i, align 4
  store i64 %7, ptr %__tx.sroa.0.017.i, align 4
  %incdec.ptr.i = getelementptr inbounds i8, ptr %__tx.sroa.0.017.i, i32 8
  %incdec.ptr.i.i58 = getelementptr inbounds i8, ptr %__first.sroa.0.016.i, i32 8
  %cmp.not.i = icmp eq ptr %incdec.ptr.i, %add.ptr.i.i57
  br i1 %cmp.not.i, label %_ZNSt3__114__split_bufferINS_4pairIPcjEERNS_9allocatorIS3_EEE17__destruct_at_endB8ne190000EPS3_.exit.i.loopexit, label %for.body.i, !llvm.loop !237

_ZNSt3__114__split_bufferINS_4pairIPcjEERNS_9allocatorIS3_EEE17__destruct_at_endB8ne190000EPS3_.exit.i.loopexit: ; preds = %for.body.i
  %.pre = load ptr, ptr %this, align 4, !tbaa !201
  br label %_ZNSt3__114__split_bufferINS_4pairIPcjEERNS_9allocatorIS3_EEE17__destruct_at_endB8ne190000EPS3_.exit.i

_ZNSt3__114__split_bufferINS_4pairIPcjEERNS_9allocatorIS3_EEE17__destruct_at_endB8ne190000EPS3_.exit.i: ; preds = %_ZNSt3__114__split_bufferINS_4pairIPcjEERNS_9allocatorIS3_EEE17__destruct_at_endB8ne190000EPS3_.exit.i.loopexit, %_ZNSt3__114__split_bufferINS_4pairIPcjEERNS_9allocatorIS3_EEEC2EjjS6_.exit
  %8 = phi ptr [ %3, %_ZNSt3__114__split_bufferINS_4pairIPcjEERNS_9allocatorIS3_EEEC2EjjS6_.exit ], [ %.pre, %_ZNSt3__114__split_bufferINS_4pairIPcjEERNS_9allocatorIS3_EEE17__destruct_at_endB8ne190000EPS3_.exit.i.loopexit ]
  %storemerge = phi ptr [ %add.ptr.i, %_ZNSt3__114__split_bufferINS_4pairIPcjEERNS_9allocatorIS3_EEEC2EjjS6_.exit ], [ %add.ptr.i.i57, %_ZNSt3__114__split_bufferINS_4pairIPcjEERNS_9allocatorIS3_EEE17__destruct_at_endB8ne190000EPS3_.exit.i.loopexit ]
  store ptr %storemerge.i, ptr %this, align 4, !tbaa !201
  store ptr %add.ptr.i, ptr %__begin_, align 4, !tbaa !201
  store ptr %storemerge, ptr %__end_, align 4, !tbaa !201
  store ptr %add.ptr6.i, ptr %__end_cap_.i, align 4, !tbaa !201
  %tobool.not.i = icmp eq ptr %8, null
  br i1 %tobool.not.i, label %if.end39, label %if.then.i

if.then.i:                                        ; preds = %_ZNSt3__114__split_bufferINS_4pairIPcjEERNS_9allocatorIS3_EEE17__destruct_at_endB8ne190000EPS3_.exit.i
  %sub.ptr.rhs.cast.i.i = ptrtoint ptr %8 to i32
  %sub.ptr.sub.i.i = sub i32 %sub.ptr.lhs.cast16, %sub.ptr.rhs.cast.i.i
  tail call void @_ZdlPvj(ptr noundef nonnull %8, i32 noundef %sub.ptr.sub.i.i) #29
  %.pre64 = load ptr, ptr %__end_, align 4, !tbaa !235
  br label %if.end39

if.end39:                                         ; preds = %if.then.i, %_ZNSt3__114__split_bufferINS_4pairIPcjEERNS_9allocatorIS3_EEE17__destruct_at_endB8ne190000EPS3_.exit.i, %_ZNSt3__124__copy_move_unwrap_itersB8ne190000INS_11__move_implINS_17_ClassicAlgPolicyEEEPNS_4pairIPcjEES7_S7_TnNS_9enable_ifIXsr12__can_rewrapIT0_T2_EE5valueEiE4typeELi0EEENS4_IS9_SA_EES9_T1_SA_.exit, %entry
  %9 = phi ptr [ %.pre64, %if.then.i ], [ %storemerge, %_ZNSt3__114__split_bufferINS_4pairIPcjEERNS_9allocatorIS3_EEE17__destruct_at_endB8ne190000EPS3_.exit.i ], [ %storemerge.lcssa.i.i, %_ZNSt3__124__copy_move_unwrap_itersB8ne190000INS_11__move_implINS_17_ClassicAlgPolicyEEEPNS_4pairIPcjEES7_S7_TnNS_9enable_ifIXsr12__can_rewrapIT0_T2_EE5valueEiE4typeELi0EEENS4_IS9_SA_EES9_T1_SA_.exit ], [ %0, %entry ]
  %10 = load i64, ptr %__args, align 4
  store i64 %10, ptr %9, align 4
  %11 = load ptr, ptr %__end_, align 4, !tbaa !235
  %incdec.ptr = getelementptr inbounds i8, ptr %11, i32 8
  store ptr %incdec.ptr, ptr %__end_, align 4, !tbaa !235
  ret void
}

; Function Attrs: mustprogress nounwind
define linkonce_odr hidden void @_ZNSt3__114__split_bufferINS_4pairIPcjEERNS_9allocatorIS3_EEED2Ev(ptr noundef nonnull align 4 dereferenceable(20) %this) unnamed_addr #17 comdat align 2 personality ptr @__gxx_personality_v0 {
entry:
  %__begin_.i = getelementptr inbounds i8, ptr %this, i32 4
  %0 = load ptr, ptr %__begin_.i, align 4, !tbaa !236
  %__end_.i.i = getelementptr inbounds i8, ptr %this, i32 8
  %__end_.promoted.i.i = load ptr, ptr %__end_.i.i, align 4, !tbaa !235
  %cmp.not4.i.i = icmp eq ptr %__end_.promoted.i.i, %0
  br i1 %cmp.not4.i.i, label %_ZNSt3__114__split_bufferINS_4pairIPcjEERNS_9allocatorIS3_EEE17__destruct_at_endB8ne190000EPS3_.exit, label %while.body.preheader.i.i

while.body.preheader.i.i:                         ; preds = %entry
  %__end_.promoted5.i.i = ptrtoint ptr %__end_.promoted.i.i to i32
  %__new_last6.i.i = ptrtoint ptr %0 to i32
  %reass.sub.i.i = add i32 %__new_last6.i.i, 7
  %.not.i.i = sub i32 %reass.sub.i.i, %__end_.promoted5.i.i
  %1 = and i32 %.not.i.i, -8
  %scevgep.i.i = getelementptr i8, ptr %__end_.promoted.i.i, i32 %1
  store ptr %scevgep.i.i, ptr %__end_.i.i, align 4, !tbaa !235
  br label %_ZNSt3__114__split_bufferINS_4pairIPcjEERNS_9allocatorIS3_EEE17__destruct_at_endB8ne190000EPS3_.exit

_ZNSt3__114__split_bufferINS_4pairIPcjEERNS_9allocatorIS3_EEE17__destruct_at_endB8ne190000EPS3_.exit: ; preds = %entry, %while.body.preheader.i.i
  %2 = load ptr, ptr %this, align 4, !tbaa !231
  %tobool.not = icmp eq ptr %2, null
  br i1 %tobool.not, label %if.end, label %if.then

if.then:                                          ; preds = %_ZNSt3__114__split_bufferINS_4pairIPcjEERNS_9allocatorIS3_EEE17__destruct_at_endB8ne190000EPS3_.exit
  %__end_cap_.i.i = getelementptr inbounds i8, ptr %this, i32 12
  %3 = load ptr, ptr %__end_cap_.i.i, align 4, !tbaa !201
  %sub.ptr.lhs.cast.i = ptrtoint ptr %3 to i32
  %sub.ptr.rhs.cast.i = ptrtoint ptr %2 to i32
  %sub.ptr.sub.i = sub i32 %sub.ptr.lhs.cast.i, %sub.ptr.rhs.cast.i
  tail call void @_ZdlPvj(ptr noundef nonnull %2, i32 noundef %sub.ptr.sub.i) #29
  br label %if.end

if.end:                                           ; preds = %if.then, %_ZNSt3__114__split_bufferINS_4pairIPcjEERNS_9allocatorIS3_EEE17__destruct_at_endB8ne190000EPS3_.exit
  ret void
}

; Function Attrs: mustprogress
define hidden void @_ZN8VtcmPool4FreeEPvj(ptr noundef nonnull align 4 dereferenceable(40) %this, ptr noundef %ptr, i32 noundef %nbytes) local_unnamed_addr #6 align 2 personality ptr @__gxx_personality_v0 {
entry:
  %oss = alloca %"class.std::__1::basic_ostringstream", align 4
  %ref.tmp22 = alloca %"class.std::__1::basic_string", align 4
  %oss31 = alloca %"class.std::__1::basic_ostringstream", align 4
  %ref.tmp35 = alloca %"class.std::__1::basic_string", align 4
  %ref.tmp81 = alloca %"struct.std::__1::pair", align 4
  %oss90 = alloca %"class.std::__1::basic_ostringstream", align 4
  %ref.tmp94 = alloca %"class.std::__1::basic_string", align 4
  %oss108 = alloca %"class.std::__1::basic_ostringstream", align 4
  %ref.tmp112 = alloca %"class.std::__1::basic_string", align 4
  %ref.tmp135 = alloca %"struct.std::__1::pair", align 4
  %oss161 = alloca %"class.std::__1::basic_ostringstream", align 4
  %ref.tmp165 = alloca %"class.std::__1::basic_string", align 4
  %allocations_ = getelementptr inbounds i8, ptr %this, i32 16
  %0 = load ptr, ptr %allocations_, align 4, !tbaa !223
  %__end_.i = getelementptr inbounds i8, ptr %this, i32 20
  %1 = load ptr, ptr %__end_.i, align 4, !tbaa !200
  %cmp.i.i.not11.i = icmp eq ptr %0, %1
  br i1 %cmp.i.i.not11.i, label %"_ZNSt3__17find_ifB8ne190000INS_11__wrap_iterIPNS_4pairIPcjEEEEZN8VtcmPool4FreeEPvjE3$_0EET_SA_SA_T0_.exit", label %for.body.i

for.body.i:                                       ; preds = %entry, %for.inc.i
  %__first.sroa.0.012.i = phi ptr [ %incdec.ptr.i.i, %for.inc.i ], [ %0, %entry ]
  %agg.tmp.sroa.0.0.copyload.i = load i64, ptr %__first.sroa.0.012.i, align 4
  %entry2.sroa.0.0.extract.trunc.i.i = trunc i64 %agg.tmp.sroa.0.0.copyload.i to i32
  %2 = inttoptr i32 %entry2.sroa.0.0.extract.trunc.i.i to ptr
  %cmp.i.i = icmp eq ptr %2, %ptr
  br i1 %cmp.i.i, label %"_ZNSt3__17find_ifB8ne190000INS_11__wrap_iterIPNS_4pairIPcjEEEEZN8VtcmPool4FreeEPvjE3$_0EET_SA_SA_T0_.exit", label %for.inc.i

for.inc.i:                                        ; preds = %for.body.i
  %incdec.ptr.i.i = getelementptr inbounds i8, ptr %__first.sroa.0.012.i, i32 8
  %cmp.i.i.not.i = icmp eq ptr %incdec.ptr.i.i, %1
  br i1 %cmp.i.i.not.i, label %if.then, label %for.body.i, !llvm.loop !238

"_ZNSt3__17find_ifB8ne190000INS_11__wrap_iterIPNS_4pairIPcjEEEEZN8VtcmPool4FreeEPvjE3$_0EET_SA_SA_T0_.exit": ; preds = %for.body.i, %entry
  %__first.sroa.0.0.lcssa.i.in = phi ptr [ %0, %entry ], [ %__first.sroa.0.012.i, %for.body.i ]
  %cmp.i.i219.not = icmp eq ptr %__first.sroa.0.0.lcssa.i.in, %1
  br i1 %cmp.i.i219.not, label %if.then, label %if.end

if.then:                                          ; preds = %for.inc.i, %"_ZNSt3__17find_ifB8ne190000INS_11__wrap_iterIPNS_4pairIPcjEEEEZN8VtcmPool4FreeEPvjE3$_0EET_SA_SA_T0_.exit"
  %__first.sroa.0.0.lcssa.i.in421 = phi ptr [ %__first.sroa.0.0.lcssa.i.in, %"_ZNSt3__17find_ifB8ne190000INS_11__wrap_iterIPNS_4pairIPcjEEEEZN8VtcmPool4FreeEPvjE3$_0EET_SA_SA_T0_.exit" ], [ %1, %for.inc.i ]
  call void @llvm.lifetime.start.p0(ptr %oss)
  call void @_ZNSt3__119basic_ostringstreamIcNS_11char_traitsIcEENS_9allocatorIcEEEC1B8ne190000Ev(ptr noundef nonnull align 4 dereferenceable(56) %oss)
  %call1.i220 = invoke noundef nonnull align 4 dereferenceable(4) ptr @_ZNSt3__124__put_character_sequenceB8ne190000IcNS_11char_traitsIcEEEERNS_13basic_ostreamIT_T0_EES7_PKS4_j(ptr noundef nonnull align 4 dereferenceable(4) %oss, ptr noundef nonnull @.str.22, i32 noundef 57)
          to label %invoke.cont unwind label %lpad

invoke.cont:                                      ; preds = %if.then
  call void @llvm.lifetime.start.p0(ptr %ref.tmp22)
  %__sb_.i = getelementptr inbounds i8, ptr %oss, i32 4
  invoke void @_ZNKSt3__115basic_stringbufIcNS_11char_traitsIcEENS_9allocatorIcEEE3strEv(ptr dead_on_unwind nonnull writable sret(%"class.std::__1::basic_string") align 4 %ref.tmp22, ptr noundef nonnull align 4 dereferenceable(52) %__sb_.i)
          to label %invoke.cont24 unwind label %lpad23

invoke.cont24:                                    ; preds = %invoke.cont
  invoke void @_Z11CheckFailedPKcS0_iRKNSt3__112basic_stringIcNS1_11char_traitsIcEENS1_9allocatorIcEEEE(ptr noundef nonnull @.str.23, ptr noundef nonnull @.str, i32 noundef 113, ptr noundef nonnull align 4 dereferenceable(12) %ref.tmp22)
          to label %invoke.cont26 unwind label %lpad25

invoke.cont26:                                    ; preds = %invoke.cont24
  %bf.load.i.i = load i8, ptr %ref.tmp22, align 4
  %bf.clear.i.i = and i8 %bf.load.i.i, 1
  %tobool.i.not.i = icmp eq i8 %bf.clear.i.i, 0
  br i1 %tobool.i.not.i, label %_ZNSt3__112basic_stringIcNS_11char_traitsIcEENS_9allocatorIcEEED2Ev.exit, label %if.then.i

if.then.i:                                        ; preds = %invoke.cont26
  %__data_.i.i = getelementptr inbounds i8, ptr %ref.tmp22, i32 8
  %3 = load ptr, ptr %__data_.i.i, align 4, !tbaa !189
  %bf.load.i5.i = load i32, ptr %ref.tmp22, align 4
  %bf.lshr.i.i = and i32 %bf.load.i5.i, -2
  call void @_ZdlPvj(ptr noundef %3, i32 noundef %bf.lshr.i.i) #29
  br label %_ZNSt3__112basic_stringIcNS_11char_traitsIcEENS_9allocatorIcEEED2Ev.exit

_ZNSt3__112basic_stringIcNS_11char_traitsIcEENS_9allocatorIcEEED2Ev.exit: ; preds = %invoke.cont26, %if.then.i
  call void @llvm.lifetime.end.p0(ptr %ref.tmp22)
  %4 = load ptr, ptr @_ZTTNSt3__119basic_ostringstreamIcNS_11char_traitsIcEENS_9allocatorIcEEEE, align 4
  store ptr %4, ptr %oss, align 4, !tbaa !190
  %5 = load ptr, ptr getelementptr inbounds (i8, ptr @_ZTTNSt3__119basic_ostringstreamIcNS_11char_traitsIcEENS_9allocatorIcEEEE, i32 12), align 4
  %vbase.offset.ptr.i.i = getelementptr i8, ptr %4, i32 -12
  %vbase.offset.i.i = load i32, ptr %vbase.offset.ptr.i.i, align 4
  %add.ptr.i.i = getelementptr inbounds i8, ptr %oss, i32 %vbase.offset.i.i
  store ptr %5, ptr %add.ptr.i.i, align 4, !tbaa !190
  store ptr getelementptr inbounds inrange(-8, 56) (i8, ptr @_ZTVNSt3__115basic_stringbufIcNS_11char_traitsIcEENS_9allocatorIcEEEE, i32 8), ptr %__sb_.i, align 4, !tbaa !190
  %__str_.i.i.i = getelementptr inbounds i8, ptr %oss, i32 36
  %bf.load.i.i.i.i.i = load i8, ptr %__str_.i.i.i, align 4
  %bf.clear.i.i.i.i.i = and i8 %bf.load.i.i.i.i.i, 1
  %tobool.i.not.i.i.i.i = icmp eq i8 %bf.clear.i.i.i.i.i, 0
  br i1 %tobool.i.not.i.i.i.i, label %_ZNSt3__119basic_ostringstreamIcNS_11char_traitsIcEENS_9allocatorIcEEED1Ev.exit, label %if.then.i.i.i.i

if.then.i.i.i.i:                                  ; preds = %_ZNSt3__112basic_stringIcNS_11char_traitsIcEENS_9allocatorIcEEED2Ev.exit
  %__data_.i.i.i.i.i = getelementptr inbounds i8, ptr %oss, i32 44
  %6 = load ptr, ptr %__data_.i.i.i.i.i, align 4, !tbaa !189
  %bf.load.i5.i.i.i.i = load i32, ptr %__str_.i.i.i, align 4
  %bf.lshr.i.i.i.i.i = and i32 %bf.load.i5.i.i.i.i, -2
  call void @_ZdlPvj(ptr noundef %6, i32 noundef %bf.lshr.i.i.i.i.i) #29
  br label %_ZNSt3__119basic_ostringstreamIcNS_11char_traitsIcEENS_9allocatorIcEEED1Ev.exit

_ZNSt3__119basic_ostringstreamIcNS_11char_traitsIcEENS_9allocatorIcEEED1Ev.exit: ; preds = %_ZNSt3__112basic_stringIcNS_11char_traitsIcEENS_9allocatorIcEEED2Ev.exit, %if.then.i.i.i.i
  call void @_ZNSt3__115basic_streambufIcNS_11char_traitsIcEEED2Ev(ptr noundef nonnull align 4 dereferenceable(32) %__sb_.i) #28
  call void @_ZNSt3__113basic_ostreamIcNS_11char_traitsIcEEED2Ev(ptr noundef nonnull align 4 dereferenceable(4) %oss, ptr noundef nonnull getelementptr inbounds (i8, ptr @_ZTTNSt3__119basic_ostringstreamIcNS_11char_traitsIcEENS_9allocatorIcEEEE, i32 4)) #28
  %7 = getelementptr inbounds i8, ptr %oss, i32 56
  call void @_ZNSt3__19basic_iosIcNS_11char_traitsIcEEED2Ev(ptr noundef nonnull align 4 dereferenceable(80) %7) #28
  call void @llvm.lifetime.end.p0(ptr %oss)
  br label %if.end

lpad:                                             ; preds = %if.then
  %8 = landingpad { ptr, i32 }
          cleanup
  br label %ehcleanup27

lpad23:                                           ; preds = %invoke.cont
  %9 = landingpad { ptr, i32 }
          cleanup
  br label %ehcleanup

lpad25:                                           ; preds = %invoke.cont24
  %10 = landingpad { ptr, i32 }
          cleanup
  %bf.load.i.i221 = load i8, ptr %ref.tmp22, align 4
  %bf.clear.i.i222 = and i8 %bf.load.i.i221, 1
  %tobool.i.not.i223 = icmp eq i8 %bf.clear.i.i222, 0
  br i1 %tobool.i.not.i223, label %ehcleanup, label %if.then.i224

if.then.i224:                                     ; preds = %lpad25
  %__data_.i.i225 = getelementptr inbounds i8, ptr %ref.tmp22, i32 8
  %11 = load ptr, ptr %__data_.i.i225, align 4, !tbaa !189
  %bf.load.i5.i226 = load i32, ptr %ref.tmp22, align 4
  %bf.lshr.i.i227 = and i32 %bf.load.i5.i226, -2
  call void @_ZdlPvj(ptr noundef %11, i32 noundef %bf.lshr.i.i227) #29
  br label %ehcleanup

ehcleanup:                                        ; preds = %if.then.i224, %lpad25, %lpad23
  %.pn = phi { ptr, i32 } [ %9, %lpad23 ], [ %10, %lpad25 ], [ %10, %if.then.i224 ]
  call void @llvm.lifetime.end.p0(ptr %ref.tmp22)
  br label %ehcleanup27

ehcleanup27:                                      ; preds = %ehcleanup, %lpad
  %.pn.pn = phi { ptr, i32 } [ %.pn, %ehcleanup ], [ %8, %lpad ]
  call void @_ZNSt3__119basic_ostringstreamIcNS_11char_traitsIcEENS_9allocatorIcEEED1Ev(ptr noundef nonnull align 4 dereferenceable(56) %oss) #28
  call void @llvm.lifetime.end.p0(ptr %oss)
  br label %ehcleanup198

if.end:                                           ; preds = %_ZNSt3__119basic_ostringstreamIcNS_11char_traitsIcEENS_9allocatorIcEEED1Ev.exit, %"_ZNSt3__17find_ifB8ne190000INS_11__wrap_iterIPNS_4pairIPcjEEEEZN8VtcmPool4FreeEPvjE3$_0EET_SA_SA_T0_.exit"
  %__first.sroa.0.0.lcssa.i.in420 = phi ptr [ %__first.sroa.0.0.lcssa.i.in421, %_ZNSt3__119basic_ostringstreamIcNS_11char_traitsIcEENS_9allocatorIcEEED1Ev.exit ], [ %__first.sroa.0.0.lcssa.i.in, %"_ZNSt3__17find_ifB8ne190000INS_11__wrap_iterIPNS_4pairIPcjEEEEZN8VtcmPool4FreeEPvjE3$_0EET_SA_SA_T0_.exit" ]
  %second = getelementptr inbounds i8, ptr %__first.sroa.0.0.lcssa.i.in420, i32 4
  %12 = load i32, ptr %second, align 4, !tbaa !225
  %cmp = icmp eq i32 %12, %nbytes
  br i1 %cmp, label %if.end44, label %if.then30

if.then30:                                        ; preds = %if.end
  call void @llvm.lifetime.start.p0(ptr %oss31)
  call void @_ZNSt3__119basic_ostringstreamIcNS_11char_traitsIcEENS_9allocatorIcEEEC1B8ne190000Ev(ptr noundef nonnull align 4 dereferenceable(56) %oss31)
  %call1.i230 = invoke noundef nonnull align 4 dereferenceable(4) ptr @_ZNSt3__124__put_character_sequenceB8ne190000IcNS_11char_traitsIcEEEERNS_13basic_ostreamIT_T0_EES7_PKS4_j(ptr noundef nonnull align 4 dereferenceable(4) %oss31, ptr noundef nonnull @.str.24, i32 noundef 55)
          to label %invoke.cont33 unwind label %lpad32

invoke.cont33:                                    ; preds = %if.then30
  call void @llvm.lifetime.start.p0(ptr %ref.tmp35)
  %__sb_.i232 = getelementptr inbounds i8, ptr %oss31, i32 4
  invoke void @_ZNKSt3__115basic_stringbufIcNS_11char_traitsIcEENS_9allocatorIcEEE3strEv(ptr dead_on_unwind nonnull writable sret(%"class.std::__1::basic_string") align 4 %ref.tmp35, ptr noundef nonnull align 4 dereferenceable(52) %__sb_.i232)
          to label %invoke.cont37 unwind label %lpad36

invoke.cont37:                                    ; preds = %invoke.cont33
  invoke void @_Z11CheckFailedPKcS0_iRKNSt3__112basic_stringIcNS1_11char_traitsIcEENS1_9allocatorIcEEEE(ptr noundef nonnull @.str.25, ptr noundef nonnull @.str, i32 noundef 115, ptr noundef nonnull align 4 dereferenceable(12) %ref.tmp35)
          to label %invoke.cont39 unwind label %lpad38

invoke.cont39:                                    ; preds = %invoke.cont37
  %bf.load.i.i234 = load i8, ptr %ref.tmp35, align 4
  %bf.clear.i.i235 = and i8 %bf.load.i.i234, 1
  %tobool.i.not.i236 = icmp eq i8 %bf.clear.i.i235, 0
  br i1 %tobool.i.not.i236, label %_ZNSt3__112basic_stringIcNS_11char_traitsIcEENS_9allocatorIcEEED2Ev.exit241, label %if.then.i237

if.then.i237:                                     ; preds = %invoke.cont39
  %__data_.i.i238 = getelementptr inbounds i8, ptr %ref.tmp35, i32 8
  %13 = load ptr, ptr %__data_.i.i238, align 4, !tbaa !189
  %bf.load.i5.i239 = load i32, ptr %ref.tmp35, align 4
  %bf.lshr.i.i240 = and i32 %bf.load.i5.i239, -2
  call void @_ZdlPvj(ptr noundef %13, i32 noundef %bf.lshr.i.i240) #29
  br label %_ZNSt3__112basic_stringIcNS_11char_traitsIcEENS_9allocatorIcEEED2Ev.exit241

_ZNSt3__112basic_stringIcNS_11char_traitsIcEENS_9allocatorIcEEED2Ev.exit241: ; preds = %invoke.cont39, %if.then.i237
  call void @llvm.lifetime.end.p0(ptr %ref.tmp35)
  %14 = load ptr, ptr @_ZTTNSt3__119basic_ostringstreamIcNS_11char_traitsIcEENS_9allocatorIcEEEE, align 4
  store ptr %14, ptr %oss31, align 4, !tbaa !190
  %15 = load ptr, ptr getelementptr inbounds (i8, ptr @_ZTTNSt3__119basic_ostringstreamIcNS_11char_traitsIcEENS_9allocatorIcEEEE, i32 12), align 4
  %vbase.offset.ptr.i.i242 = getelementptr i8, ptr %14, i32 -12
  %vbase.offset.i.i243 = load i32, ptr %vbase.offset.ptr.i.i242, align 4
  %add.ptr.i.i244 = getelementptr inbounds i8, ptr %oss31, i32 %vbase.offset.i.i243
  store ptr %15, ptr %add.ptr.i.i244, align 4, !tbaa !190
  store ptr getelementptr inbounds inrange(-8, 56) (i8, ptr @_ZTVNSt3__115basic_stringbufIcNS_11char_traitsIcEENS_9allocatorIcEEEE, i32 8), ptr %__sb_.i232, align 4, !tbaa !190
  %__str_.i.i.i246 = getelementptr inbounds i8, ptr %oss31, i32 36
  %bf.load.i.i.i.i.i247 = load i8, ptr %__str_.i.i.i246, align 4
  %bf.clear.i.i.i.i.i248 = and i8 %bf.load.i.i.i.i.i247, 1
  %tobool.i.not.i.i.i.i249 = icmp eq i8 %bf.clear.i.i.i.i.i248, 0
  br i1 %tobool.i.not.i.i.i.i249, label %_ZNSt3__119basic_ostringstreamIcNS_11char_traitsIcEENS_9allocatorIcEEED1Ev.exit254, label %if.then.i.i.i.i250

if.then.i.i.i.i250:                               ; preds = %_ZNSt3__112basic_stringIcNS_11char_traitsIcEENS_9allocatorIcEEED2Ev.exit241
  %__data_.i.i.i.i.i251 = getelementptr inbounds i8, ptr %oss31, i32 44
  %16 = load ptr, ptr %__data_.i.i.i.i.i251, align 4, !tbaa !189
  %bf.load.i5.i.i.i.i252 = load i32, ptr %__str_.i.i.i246, align 4
  %bf.lshr.i.i.i.i.i253 = and i32 %bf.load.i5.i.i.i.i252, -2
  call void @_ZdlPvj(ptr noundef %16, i32 noundef %bf.lshr.i.i.i.i.i253) #29
  br label %_ZNSt3__119basic_ostringstreamIcNS_11char_traitsIcEENS_9allocatorIcEEED1Ev.exit254

_ZNSt3__119basic_ostringstreamIcNS_11char_traitsIcEENS_9allocatorIcEEED1Ev.exit254: ; preds = %_ZNSt3__112basic_stringIcNS_11char_traitsIcEENS_9allocatorIcEEED2Ev.exit241, %if.then.i.i.i.i250
  call void @_ZNSt3__115basic_streambufIcNS_11char_traitsIcEEED2Ev(ptr noundef nonnull align 4 dereferenceable(32) %__sb_.i232) #28
  call void @_ZNSt3__113basic_ostreamIcNS_11char_traitsIcEEED2Ev(ptr noundef nonnull align 4 dereferenceable(4) %oss31, ptr noundef nonnull getelementptr inbounds (i8, ptr @_ZTTNSt3__119basic_ostringstreamIcNS_11char_traitsIcEENS_9allocatorIcEEEE, i32 4)) #28
  %17 = getelementptr inbounds i8, ptr %oss31, i32 56
  call void @_ZNSt3__19basic_iosIcNS_11char_traitsIcEEED2Ev(ptr noundef nonnull align 4 dereferenceable(80) %17) #28
  call void @llvm.lifetime.end.p0(ptr %oss31)
  br label %if.end44

lpad32:                                           ; preds = %if.then30
  %18 = landingpad { ptr, i32 }
          cleanup
  br label %ehcleanup42

lpad36:                                           ; preds = %invoke.cont33
  %19 = landingpad { ptr, i32 }
          cleanup
  br label %ehcleanup41

lpad38:                                           ; preds = %invoke.cont37
  %20 = landingpad { ptr, i32 }
          cleanup
  %bf.load.i.i255 = load i8, ptr %ref.tmp35, align 4
  %bf.clear.i.i256 = and i8 %bf.load.i.i255, 1
  %tobool.i.not.i257 = icmp eq i8 %bf.clear.i.i256, 0
  br i1 %tobool.i.not.i257, label %ehcleanup41, label %if.then.i258

if.then.i258:                                     ; preds = %lpad38
  %__data_.i.i259 = getelementptr inbounds i8, ptr %ref.tmp35, i32 8
  %21 = load ptr, ptr %__data_.i.i259, align 4, !tbaa !189
  %bf.load.i5.i260 = load i32, ptr %ref.tmp35, align 4
  %bf.lshr.i.i261 = and i32 %bf.load.i5.i260, -2
  call void @_ZdlPvj(ptr noundef %21, i32 noundef %bf.lshr.i.i261) #29
  br label %ehcleanup41

ehcleanup41:                                      ; preds = %if.then.i258, %lpad38, %lpad36
  %.pn203 = phi { ptr, i32 } [ %19, %lpad36 ], [ %20, %lpad38 ], [ %20, %if.then.i258 ]
  call void @llvm.lifetime.end.p0(ptr %ref.tmp35)
  br label %ehcleanup42

ehcleanup42:                                      ; preds = %ehcleanup41, %lpad32
  %.pn203.pn = phi { ptr, i32 } [ %.pn203, %ehcleanup41 ], [ %18, %lpad32 ]
  call void @_ZNSt3__119basic_ostringstreamIcNS_11char_traitsIcEENS_9allocatorIcEEED1Ev(ptr noundef nonnull align 4 dereferenceable(56) %oss31) #28
  call void @llvm.lifetime.end.p0(ptr %oss31)
  br label %ehcleanup198

if.end44:                                         ; preds = %_ZNSt3__119basic_ostringstreamIcNS_11char_traitsIcEENS_9allocatorIcEEED1Ev.exit254, %if.end
  %coerce.val.pi48 = ptrtoint ptr %__first.sroa.0.0.lcssa.i.in420 to i32
  %22 = load ptr, ptr %allocations_, align 4, !tbaa !223
  %sub.ptr.rhs.cast.i.i = ptrtoint ptr %22 to i32
  %sub.ptr.sub.i.i = sub i32 %coerce.val.pi48, %sub.ptr.rhs.cast.i.i
  %add.ptr.i = getelementptr inbounds i8, ptr %22, i32 %sub.ptr.sub.i.i
  %add.ptr5.i = getelementptr inbounds i8, ptr %add.ptr.i, i32 8
  %23 = load ptr, ptr %__end_.i, align 4, !tbaa !200
  %cmp.not10.i.i.i = icmp eq ptr %add.ptr5.i, %23
  br i1 %cmp.not10.i.i.i, label %_ZNSt3__16vectorINS_4pairIPcjEENS_9allocatorIS3_EEE5eraseB8ne190000ENS_11__wrap_iterIPKS3_EE.exit, label %while.body.i.i.i

while.body.i.i.i:                                 ; preds = %if.end44, %while.body.i.i.i
  %storemerge12.i.i.i = phi ptr [ %incdec.ptr3.i.i.i, %while.body.i.i.i ], [ %add.ptr.i, %if.end44 ]
  %__first.addr.011.i.i.i = phi ptr [ %incdec.ptr.i.i.i, %while.body.i.i.i ], [ %add.ptr5.i, %if.end44 ]
  %24 = load ptr, ptr %__first.addr.011.i.i.i, align 4, !tbaa !201
  store ptr %24, ptr %storemerge12.i.i.i, align 4, !tbaa !227
  %second.i.i.i.i = getelementptr inbounds i8, ptr %__first.addr.011.i.i.i, i32 4
  %25 = load i32, ptr %second.i.i.i.i, align 4, !tbaa !184
  %second3.i.i.i.i = getelementptr inbounds i8, ptr %storemerge12.i.i.i, i32 4
  store i32 %25, ptr %second3.i.i.i.i, align 4, !tbaa !225
  %incdec.ptr.i.i.i = getelementptr inbounds i8, ptr %__first.addr.011.i.i.i, i32 8
  %incdec.ptr3.i.i.i = getelementptr inbounds i8, ptr %storemerge12.i.i.i, i32 8
  %cmp.not.i.i.i = icmp eq ptr %incdec.ptr.i.i.i, %23
  br i1 %cmp.not.i.i.i, label %_ZNSt3__16vectorINS_4pairIPcjEENS_9allocatorIS3_EEE5eraseB8ne190000ENS_11__wrap_iterIPKS3_EE.exit, label %while.body.i.i.i, !llvm.loop !228

_ZNSt3__16vectorINS_4pairIPcjEENS_9allocatorIS3_EEE5eraseB8ne190000ENS_11__wrap_iterIPKS3_EE.exit: ; preds = %while.body.i.i.i, %if.end44
  %storemerge.lcssa.i.i.i = phi ptr [ %add.ptr.i, %if.end44 ], [ %incdec.ptr3.i.i.i, %while.body.i.i.i ]
  store ptr %storemerge.lcssa.i.i.i, ptr %__end_.i, align 4, !tbaa !200
  %free_ = getelementptr inbounds i8, ptr %this, i32 28
  %26 = load ptr, ptr %free_, align 4, !tbaa !223
  %__end_.i265 = getelementptr inbounds i8, ptr %this, i32 32
  %27 = load ptr, ptr %__end_.i265, align 4, !tbaa !200
  %cmp.not1.i.i = icmp eq ptr %27, %26
  br i1 %cmp.not1.i.i, label %if.then77, label %while.body.lr.ph.i.i

while.body.lr.ph.i.i:                             ; preds = %_ZNSt3__16vectorINS_4pairIPcjEENS_9allocatorIS3_EEE5eraseB8ne190000ENS_11__wrap_iterIPKS3_EE.exit
  %coerce.val.pi.i.i266 = ptrtoint ptr %27 to i32
  %coerce.val.pi.i.i264 = ptrtoint ptr %26 to i32
  %sub.ptr.sub.i.i.i.i.i.i = sub i32 %coerce.val.pi.i.i266, %coerce.val.pi.i.i264
  %sub.ptr.div.i.i.i.i.i.i = ashr exact i32 %sub.ptr.sub.i.i.i.i.i.i, 3
  br label %while.body.i.i

while.body.i.i:                                   ; preds = %while.body.i.i, %while.body.lr.ph.i.i
  %__first.sroa.0.03.i.i = phi ptr [ %26, %while.body.lr.ph.i.i ], [ %__first.sroa.0.1.i.i, %while.body.i.i ]
  %__len.addr.02.i.i = phi i32 [ %sub.ptr.div.i.i.i.i.i.i, %while.body.lr.ph.i.i ], [ %__len.addr.1.i.i, %while.body.i.i ]
  %div1.i.i.i = lshr i32 %__len.addr.02.i.i, 1
  %add.ptr.i.i.i.i.i.i = getelementptr inbounds %"struct.std::__1::pair", ptr %__first.sroa.0.03.i.i, i32 %div1.i.i.i
  %call2.val.i.i = load i64, ptr %add.ptr.i.i.i.i.i.i, align 4
  %p.sroa.0.0.extract.trunc.i.i.i.i = trunc i64 %call2.val.i.i to i32
  %28 = inttoptr i32 %p.sroa.0.0.extract.trunc.i.i.i.i to ptr
  %cmp.i.i.not.i.i = icmp ugt ptr %28, %ptr
  %incdec.ptr.i.i.i267 = getelementptr inbounds i8, ptr %add.ptr.i.i.i.i.i.i, i32 8
  %add.neg.i.i = xor i32 %div1.i.i.i, -1
  %sub.i.i = add i32 %__len.addr.02.i.i, %add.neg.i.i
  %__len.addr.1.i.i = select i1 %cmp.i.i.not.i.i, i32 %div1.i.i.i, i32 %sub.i.i
  %__first.sroa.0.1.i.i = select i1 %cmp.i.i.not.i.i, ptr %__first.sroa.0.03.i.i, ptr %incdec.ptr.i.i.i267
  %cmp.not.i.i = icmp eq i32 %__len.addr.1.i.i, 0
  br i1 %cmp.not.i.i, label %"_ZNSt3__111lower_boundB8ne190000INS_11__wrap_iterIPNS_4pairIPcjEEEES4_ZN8VtcmPool4FreeEPvjE3$_1EET_SA_SA_RKT0_T1_.exit", label %while.body.i.i, !llvm.loop !239

"_ZNSt3__111lower_boundB8ne190000INS_11__wrap_iterIPNS_4pairIPcjEEEES4_ZN8VtcmPool4FreeEPvjE3$_1EET_SA_SA_RKT0_T1_.exit": ; preds = %while.body.i.i
  %cmp.i = icmp eq ptr %__first.sroa.0.1.i.i, %27
  br i1 %cmp.i, label %if.then77, label %if.else

if.then77:                                        ; preds = %_ZNSt3__16vectorINS_4pairIPcjEENS_9allocatorIS3_EEE5eraseB8ne190000ENS_11__wrap_iterIPKS3_EE.exit, %"_ZNSt3__111lower_boundB8ne190000INS_11__wrap_iterIPNS_4pairIPcjEEEES4_ZN8VtcmPool4FreeEPvjE3$_1EET_SA_SA_RKT0_T1_.exit"
  %__first.sroa.0.0.lcssa.i.i424 = phi ptr [ %27, %"_ZNSt3__111lower_boundB8ne190000INS_11__wrap_iterIPNS_4pairIPcjEEEES4_ZN8VtcmPool4FreeEPvjE3$_1EET_SA_SA_RKT0_T1_.exit" ], [ %26, %_ZNSt3__16vectorINS_4pairIPcjEENS_9allocatorIS3_EEE5eraseB8ne190000ENS_11__wrap_iterIPKS3_EE.exit ]
  call void @llvm.lifetime.start.p0(ptr %ref.tmp81)
  store ptr %ptr, ptr %ref.tmp81, align 4, !tbaa !227
  %second.i270 = getelementptr inbounds i8, ptr %ref.tmp81, i32 4
  store i32 %nbytes, ptr %second.i270, align 4, !tbaa !225
  %coerce.val.pi83 = ptrtoint ptr %__first.sroa.0.0.lcssa.i.i424 to i32
  %call84 = call i32 @_ZNSt3__16vectorINS_4pairIPcjEENS_9allocatorIS3_EEE7emplaceIJS3_EEENS_11__wrap_iterIPS3_EENS8_IPKS3_EEDpOT_(ptr noundef nonnull align 4 dereferenceable(12) %free_, i32 %coerce.val.pi83, ptr noundef nonnull align 4 dereferenceable(8) %ref.tmp81)
  %coerce.val.ip86 = inttoptr i32 %call84 to ptr
  call void @llvm.lifetime.end.p0(ptr %ref.tmp81)
  br label %if.end142

if.else:                                          ; preds = %"_ZNSt3__111lower_boundB8ne190000INS_11__wrap_iterIPNS_4pairIPcjEEEES4_ZN8VtcmPool4FreeEPvjE3$_1EET_SA_SA_RKT0_T1_.exit"
  %29 = load ptr, ptr %__first.sroa.0.1.i.i, align 4, !tbaa !227
  %cmp88.not = icmp eq ptr %29, %ptr
  br i1 %cmp88.not, label %if.then89, label %if.end103

if.then89:                                        ; preds = %if.else
  call void @llvm.lifetime.start.p0(ptr %oss90)
  call void @_ZNSt3__119basic_ostringstreamIcNS_11char_traitsIcEENS_9allocatorIcEEEC1B8ne190000Ev(ptr noundef nonnull align 4 dereferenceable(56) %oss90)
  %call1.i272 = invoke noundef nonnull align 4 dereferenceable(4) ptr @_ZNSt3__124__put_character_sequenceB8ne190000IcNS_11char_traitsIcEEEERNS_13basic_ostreamIT_T0_EES7_PKS4_j(ptr noundef nonnull align 4 dereferenceable(4) %oss90, ptr noundef nonnull @.str.26, i32 noundef 52)
          to label %invoke.cont92 unwind label %lpad91

invoke.cont92:                                    ; preds = %if.then89
  call void @llvm.lifetime.start.p0(ptr %ref.tmp94)
  %__sb_.i274 = getelementptr inbounds i8, ptr %oss90, i32 4
  invoke void @_ZNKSt3__115basic_stringbufIcNS_11char_traitsIcEENS_9allocatorIcEEE3strEv(ptr dead_on_unwind nonnull writable sret(%"class.std::__1::basic_string") align 4 %ref.tmp94, ptr noundef nonnull align 4 dereferenceable(52) %__sb_.i274)
          to label %invoke.cont96 unwind label %lpad95

invoke.cont96:                                    ; preds = %invoke.cont92
  invoke void @_Z11CheckFailedPKcS0_iRKNSt3__112basic_stringIcNS1_11char_traitsIcEENS1_9allocatorIcEEEE(ptr noundef nonnull @.str.27, ptr noundef nonnull @.str, i32 noundef 126, ptr noundef nonnull align 4 dereferenceable(12) %ref.tmp94)
          to label %invoke.cont98 unwind label %lpad97

invoke.cont98:                                    ; preds = %invoke.cont96
  %bf.load.i.i276 = load i8, ptr %ref.tmp94, align 4
  %bf.clear.i.i277 = and i8 %bf.load.i.i276, 1
  %tobool.i.not.i278 = icmp eq i8 %bf.clear.i.i277, 0
  br i1 %tobool.i.not.i278, label %_ZNSt3__112basic_stringIcNS_11char_traitsIcEENS_9allocatorIcEEED2Ev.exit283, label %if.then.i279

if.then.i279:                                     ; preds = %invoke.cont98
  %__data_.i.i280 = getelementptr inbounds i8, ptr %ref.tmp94, i32 8
  %30 = load ptr, ptr %__data_.i.i280, align 4, !tbaa !189
  %bf.load.i5.i281 = load i32, ptr %ref.tmp94, align 4
  %bf.lshr.i.i282 = and i32 %bf.load.i5.i281, -2
  call void @_ZdlPvj(ptr noundef %30, i32 noundef %bf.lshr.i.i282) #29
  br label %_ZNSt3__112basic_stringIcNS_11char_traitsIcEENS_9allocatorIcEEED2Ev.exit283

_ZNSt3__112basic_stringIcNS_11char_traitsIcEENS_9allocatorIcEEED2Ev.exit283: ; preds = %invoke.cont98, %if.then.i279
  call void @llvm.lifetime.end.p0(ptr %ref.tmp94)
  %31 = load ptr, ptr @_ZTTNSt3__119basic_ostringstreamIcNS_11char_traitsIcEENS_9allocatorIcEEEE, align 4
  store ptr %31, ptr %oss90, align 4, !tbaa !190
  %32 = load ptr, ptr getelementptr inbounds (i8, ptr @_ZTTNSt3__119basic_ostringstreamIcNS_11char_traitsIcEENS_9allocatorIcEEEE, i32 12), align 4
  %vbase.offset.ptr.i.i284 = getelementptr i8, ptr %31, i32 -12
  %vbase.offset.i.i285 = load i32, ptr %vbase.offset.ptr.i.i284, align 4
  %add.ptr.i.i286 = getelementptr inbounds i8, ptr %oss90, i32 %vbase.offset.i.i285
  store ptr %32, ptr %add.ptr.i.i286, align 4, !tbaa !190
  store ptr getelementptr inbounds inrange(-8, 56) (i8, ptr @_ZTVNSt3__115basic_stringbufIcNS_11char_traitsIcEENS_9allocatorIcEEEE, i32 8), ptr %__sb_.i274, align 4, !tbaa !190
  %__str_.i.i.i288 = getelementptr inbounds i8, ptr %oss90, i32 36
  %bf.load.i.i.i.i.i289 = load i8, ptr %__str_.i.i.i288, align 4
  %bf.clear.i.i.i.i.i290 = and i8 %bf.load.i.i.i.i.i289, 1
  %tobool.i.not.i.i.i.i291 = icmp eq i8 %bf.clear.i.i.i.i.i290, 0
  br i1 %tobool.i.not.i.i.i.i291, label %_ZNSt3__119basic_ostringstreamIcNS_11char_traitsIcEENS_9allocatorIcEEED1Ev.exit296, label %if.then.i.i.i.i292

if.then.i.i.i.i292:                               ; preds = %_ZNSt3__112basic_stringIcNS_11char_traitsIcEENS_9allocatorIcEEED2Ev.exit283
  %__data_.i.i.i.i.i293 = getelementptr inbounds i8, ptr %oss90, i32 44
  %33 = load ptr, ptr %__data_.i.i.i.i.i293, align 4, !tbaa !189
  %bf.load.i5.i.i.i.i294 = load i32, ptr %__str_.i.i.i288, align 4
  %bf.lshr.i.i.i.i.i295 = and i32 %bf.load.i5.i.i.i.i294, -2
  call void @_ZdlPvj(ptr noundef %33, i32 noundef %bf.lshr.i.i.i.i.i295) #29
  br label %_ZNSt3__119basic_ostringstreamIcNS_11char_traitsIcEENS_9allocatorIcEEED1Ev.exit296

_ZNSt3__119basic_ostringstreamIcNS_11char_traitsIcEENS_9allocatorIcEEED1Ev.exit296: ; preds = %_ZNSt3__112basic_stringIcNS_11char_traitsIcEENS_9allocatorIcEEED2Ev.exit283, %if.then.i.i.i.i292
  call void @_ZNSt3__115basic_streambufIcNS_11char_traitsIcEEED2Ev(ptr noundef nonnull align 4 dereferenceable(32) %__sb_.i274) #28
  call void @_ZNSt3__113basic_ostreamIcNS_11char_traitsIcEEED2Ev(ptr noundef nonnull align 4 dereferenceable(4) %oss90, ptr noundef nonnull getelementptr inbounds (i8, ptr @_ZTTNSt3__119basic_ostringstreamIcNS_11char_traitsIcEENS_9allocatorIcEEEE, i32 4)) #28
  %34 = getelementptr inbounds i8, ptr %oss90, i32 56
  call void @_ZNSt3__19basic_iosIcNS_11char_traitsIcEEED2Ev(ptr noundef nonnull align 4 dereferenceable(80) %34) #28
  call void @llvm.lifetime.end.p0(ptr %oss90)
  %.pre = load ptr, ptr %__first.sroa.0.1.i.i, align 4, !tbaa !227
  br label %if.end103

lpad91:                                           ; preds = %if.then89
  %35 = landingpad { ptr, i32 }
          cleanup
  br label %ehcleanup101

lpad95:                                           ; preds = %invoke.cont92
  %36 = landingpad { ptr, i32 }
          cleanup
  br label %ehcleanup100

lpad97:                                           ; preds = %invoke.cont96
  %37 = landingpad { ptr, i32 }
          cleanup
  %bf.load.i.i297 = load i8, ptr %ref.tmp94, align 4
  %bf.clear.i.i298 = and i8 %bf.load.i.i297, 1
  %tobool.i.not.i299 = icmp eq i8 %bf.clear.i.i298, 0
  br i1 %tobool.i.not.i299, label %ehcleanup100, label %if.then.i300

if.then.i300:                                     ; preds = %lpad97
  %__data_.i.i301 = getelementptr inbounds i8, ptr %ref.tmp94, i32 8
  %38 = load ptr, ptr %__data_.i.i301, align 4, !tbaa !189
  %bf.load.i5.i302 = load i32, ptr %ref.tmp94, align 4
  %bf.lshr.i.i303 = and i32 %bf.load.i5.i302, -2
  call void @_ZdlPvj(ptr noundef %38, i32 noundef %bf.lshr.i.i303) #29
  br label %ehcleanup100

ehcleanup100:                                     ; preds = %if.then.i300, %lpad97, %lpad95
  %.pn206 = phi { ptr, i32 } [ %36, %lpad95 ], [ %37, %lpad97 ], [ %37, %if.then.i300 ]
  call void @llvm.lifetime.end.p0(ptr %ref.tmp94)
  br label %ehcleanup101

ehcleanup101:                                     ; preds = %ehcleanup100, %lpad91
  %.pn206.pn = phi { ptr, i32 } [ %.pn206, %ehcleanup100 ], [ %35, %lpad91 ]
  call void @_ZNSt3__119basic_ostringstreamIcNS_11char_traitsIcEENS_9allocatorIcEEED1Ev(ptr noundef nonnull align 4 dereferenceable(56) %oss90) #28
  call void @llvm.lifetime.end.p0(ptr %oss90)
  br label %ehcleanup198

if.end103:                                        ; preds = %_ZNSt3__119basic_ostringstreamIcNS_11char_traitsIcEENS_9allocatorIcEEED1Ev.exit296, %if.else
  %39 = phi ptr [ %.pre, %_ZNSt3__119basic_ostringstreamIcNS_11char_traitsIcEENS_9allocatorIcEEED1Ev.exit296 ], [ %29, %if.else ]
  %add.ptr = getelementptr inbounds i8, ptr %ptr, i32 %nbytes
  %cmp106.not = icmp ugt ptr %add.ptr, %39
  br i1 %cmp106.not, label %if.then107, label %if.end121

if.then107:                                       ; preds = %if.end103
  call void @llvm.lifetime.start.p0(ptr %oss108)
  call void @_ZNSt3__119basic_ostringstreamIcNS_11char_traitsIcEENS_9allocatorIcEEEC1B8ne190000Ev(ptr noundef nonnull align 4 dereferenceable(56) %oss108)
  %call1.i306 = invoke noundef nonnull align 4 dereferenceable(4) ptr @_ZNSt3__124__put_character_sequenceB8ne190000IcNS_11char_traitsIcEEEERNS_13basic_ostreamIT_T0_EES7_PKS4_j(ptr noundef nonnull align 4 dereferenceable(4) %oss108, ptr noundef nonnull @.str.28, i32 noundef 67)
          to label %invoke.cont110 unwind label %lpad109

invoke.cont110:                                   ; preds = %if.then107
  call void @llvm.lifetime.start.p0(ptr %ref.tmp112)
  %__sb_.i308 = getelementptr inbounds i8, ptr %oss108, i32 4
  invoke void @_ZNKSt3__115basic_stringbufIcNS_11char_traitsIcEENS_9allocatorIcEEE3strEv(ptr dead_on_unwind nonnull writable sret(%"class.std::__1::basic_string") align 4 %ref.tmp112, ptr noundef nonnull align 4 dereferenceable(52) %__sb_.i308)
          to label %invoke.cont114 unwind label %lpad113

invoke.cont114:                                   ; preds = %invoke.cont110
  invoke void @_Z11CheckFailedPKcS0_iRKNSt3__112basic_stringIcNS1_11char_traitsIcEENS1_9allocatorIcEEEE(ptr noundef nonnull @.str.29, ptr noundef nonnull @.str, i32 noundef 128, ptr noundef nonnull align 4 dereferenceable(12) %ref.tmp112)
          to label %invoke.cont116 unwind label %lpad115

invoke.cont116:                                   ; preds = %invoke.cont114
  %bf.load.i.i310 = load i8, ptr %ref.tmp112, align 4
  %bf.clear.i.i311 = and i8 %bf.load.i.i310, 1
  %tobool.i.not.i312 = icmp eq i8 %bf.clear.i.i311, 0
  br i1 %tobool.i.not.i312, label %_ZNSt3__112basic_stringIcNS_11char_traitsIcEENS_9allocatorIcEEED2Ev.exit317, label %if.then.i313

if.then.i313:                                     ; preds = %invoke.cont116
  %__data_.i.i314 = getelementptr inbounds i8, ptr %ref.tmp112, i32 8
  %40 = load ptr, ptr %__data_.i.i314, align 4, !tbaa !189
  %bf.load.i5.i315 = load i32, ptr %ref.tmp112, align 4
  %bf.lshr.i.i316 = and i32 %bf.load.i5.i315, -2
  call void @_ZdlPvj(ptr noundef %40, i32 noundef %bf.lshr.i.i316) #29
  br label %_ZNSt3__112basic_stringIcNS_11char_traitsIcEENS_9allocatorIcEEED2Ev.exit317

_ZNSt3__112basic_stringIcNS_11char_traitsIcEENS_9allocatorIcEEED2Ev.exit317: ; preds = %invoke.cont116, %if.then.i313
  call void @llvm.lifetime.end.p0(ptr %ref.tmp112)
  %41 = load ptr, ptr @_ZTTNSt3__119basic_ostringstreamIcNS_11char_traitsIcEENS_9allocatorIcEEEE, align 4
  store ptr %41, ptr %oss108, align 4, !tbaa !190
  %42 = load ptr, ptr getelementptr inbounds (i8, ptr @_ZTTNSt3__119basic_ostringstreamIcNS_11char_traitsIcEENS_9allocatorIcEEEE, i32 12), align 4
  %vbase.offset.ptr.i.i318 = getelementptr i8, ptr %41, i32 -12
  %vbase.offset.i.i319 = load i32, ptr %vbase.offset.ptr.i.i318, align 4
  %add.ptr.i.i320 = getelementptr inbounds i8, ptr %oss108, i32 %vbase.offset.i.i319
  store ptr %42, ptr %add.ptr.i.i320, align 4, !tbaa !190
  store ptr getelementptr inbounds inrange(-8, 56) (i8, ptr @_ZTVNSt3__115basic_stringbufIcNS_11char_traitsIcEENS_9allocatorIcEEEE, i32 8), ptr %__sb_.i308, align 4, !tbaa !190
  %__str_.i.i.i322 = getelementptr inbounds i8, ptr %oss108, i32 36
  %bf.load.i.i.i.i.i323 = load i8, ptr %__str_.i.i.i322, align 4
  %bf.clear.i.i.i.i.i324 = and i8 %bf.load.i.i.i.i.i323, 1
  %tobool.i.not.i.i.i.i325 = icmp eq i8 %bf.clear.i.i.i.i.i324, 0
  br i1 %tobool.i.not.i.i.i.i325, label %_ZNSt3__119basic_ostringstreamIcNS_11char_traitsIcEENS_9allocatorIcEEED1Ev.exit330, label %if.then.i.i.i.i326

if.then.i.i.i.i326:                               ; preds = %_ZNSt3__112basic_stringIcNS_11char_traitsIcEENS_9allocatorIcEEED2Ev.exit317
  %__data_.i.i.i.i.i327 = getelementptr inbounds i8, ptr %oss108, i32 44
  %43 = load ptr, ptr %__data_.i.i.i.i.i327, align 4, !tbaa !189
  %bf.load.i5.i.i.i.i328 = load i32, ptr %__str_.i.i.i322, align 4
  %bf.lshr.i.i.i.i.i329 = and i32 %bf.load.i5.i.i.i.i328, -2
  call void @_ZdlPvj(ptr noundef %43, i32 noundef %bf.lshr.i.i.i.i.i329) #29
  br label %_ZNSt3__119basic_ostringstreamIcNS_11char_traitsIcEENS_9allocatorIcEEED1Ev.exit330

_ZNSt3__119basic_ostringstreamIcNS_11char_traitsIcEENS_9allocatorIcEEED1Ev.exit330: ; preds = %_ZNSt3__112basic_stringIcNS_11char_traitsIcEENS_9allocatorIcEEED2Ev.exit317, %if.then.i.i.i.i326
  call void @_ZNSt3__115basic_streambufIcNS_11char_traitsIcEEED2Ev(ptr noundef nonnull align 4 dereferenceable(32) %__sb_.i308) #28
  call void @_ZNSt3__113basic_ostreamIcNS_11char_traitsIcEEED2Ev(ptr noundef nonnull align 4 dereferenceable(4) %oss108, ptr noundef nonnull getelementptr inbounds (i8, ptr @_ZTTNSt3__119basic_ostringstreamIcNS_11char_traitsIcEENS_9allocatorIcEEEE, i32 4)) #28
  %44 = getelementptr inbounds i8, ptr %oss108, i32 56
  call void @_ZNSt3__19basic_iosIcNS_11char_traitsIcEEED2Ev(ptr noundef nonnull align 4 dereferenceable(80) %44) #28
  call void @llvm.lifetime.end.p0(ptr %oss108)
  %.pre428 = load ptr, ptr %__first.sroa.0.1.i.i, align 4, !tbaa !227
  br label %if.end121

lpad109:                                          ; preds = %if.then107
  %45 = landingpad { ptr, i32 }
          cleanup
  br label %ehcleanup119

lpad113:                                          ; preds = %invoke.cont110
  %46 = landingpad { ptr, i32 }
          cleanup
  br label %ehcleanup118

lpad115:                                          ; preds = %invoke.cont114
  %47 = landingpad { ptr, i32 }
          cleanup
  %bf.load.i.i331 = load i8, ptr %ref.tmp112, align 4
  %bf.clear.i.i332 = and i8 %bf.load.i.i331, 1
  %tobool.i.not.i333 = icmp eq i8 %bf.clear.i.i332, 0
  br i1 %tobool.i.not.i333, label %ehcleanup118, label %if.then.i334

if.then.i334:                                     ; preds = %lpad115
  %__data_.i.i335 = getelementptr inbounds i8, ptr %ref.tmp112, i32 8
  %48 = load ptr, ptr %__data_.i.i335, align 4, !tbaa !189
  %bf.load.i5.i336 = load i32, ptr %ref.tmp112, align 4
  %bf.lshr.i.i337 = and i32 %bf.load.i5.i336, -2
  call void @_ZdlPvj(ptr noundef %48, i32 noundef %bf.lshr.i.i337) #29
  br label %ehcleanup118

ehcleanup118:                                     ; preds = %if.then.i334, %lpad115, %lpad113
  %.pn209 = phi { ptr, i32 } [ %46, %lpad113 ], [ %47, %lpad115 ], [ %47, %if.then.i334 ]
  call void @llvm.lifetime.end.p0(ptr %ref.tmp112)
  br label %ehcleanup119

ehcleanup119:                                     ; preds = %ehcleanup118, %lpad109
  %.pn209.pn = phi { ptr, i32 } [ %.pn209, %ehcleanup118 ], [ %45, %lpad109 ]
  call void @_ZNSt3__119basic_ostringstreamIcNS_11char_traitsIcEENS_9allocatorIcEEED1Ev(ptr noundef nonnull align 4 dereferenceable(56) %oss108) #28
  call void @llvm.lifetime.end.p0(ptr %oss108)
  br label %ehcleanup198

if.end121:                                        ; preds = %_ZNSt3__119basic_ostringstreamIcNS_11char_traitsIcEENS_9allocatorIcEEED1Ev.exit330, %if.end103
  %49 = phi ptr [ %.pre428, %_ZNSt3__119basic_ostringstreamIcNS_11char_traitsIcEENS_9allocatorIcEEED1Ev.exit330 ], [ %39, %if.end103 ]
  %cmp125 = icmp eq ptr %add.ptr, %49
  br i1 %cmp125, label %if.then126, label %if.else131

if.then126:                                       ; preds = %if.end121
  store ptr %ptr, ptr %__first.sroa.0.1.i.i, align 4, !tbaa !227
  %second130 = getelementptr inbounds i8, ptr %__first.sroa.0.1.i.i, i32 4
  %50 = load i32, ptr %second130, align 4, !tbaa !225
  %add = add i32 %50, %nbytes
  store i32 %add, ptr %second130, align 4, !tbaa !225
  br label %if.end142

if.else131:                                       ; preds = %if.end121
  call void @llvm.lifetime.start.p0(ptr %ref.tmp135)
  store ptr %ptr, ptr %ref.tmp135, align 4, !tbaa !227
  %second.i339 = getelementptr inbounds i8, ptr %ref.tmp135, i32 4
  store i32 %nbytes, ptr %second.i339, align 4, !tbaa !225
  %coerce.val.pi137 = ptrtoint ptr %__first.sroa.0.1.i.i to i32
  %call138 = call i32 @_ZNSt3__16vectorINS_4pairIPcjEENS_9allocatorIS3_EEE7emplaceIJS3_EEENS_11__wrap_iterIPS3_EENS8_IPKS3_EEDpOT_(ptr noundef nonnull align 4 dereferenceable(12) %free_, i32 %coerce.val.pi137, ptr noundef nonnull align 4 dereferenceable(8) %ref.tmp135)
  %coerce.val.ip140 = inttoptr i32 %call138 to ptr
  call void @llvm.lifetime.end.p0(ptr %ref.tmp135)
  br label %if.end142

if.end142:                                        ; preds = %if.then126, %if.else131, %if.then77
  %it.sroa.0.0 = phi ptr [ %coerce.val.ip86, %if.then77 ], [ %__first.sroa.0.1.i.i, %if.then126 ], [ %coerce.val.ip140, %if.else131 ]
  %51 = load ptr, ptr %free_, align 4, !tbaa !223
  %cmp.i.i341.not = icmp eq ptr %it.sroa.0.0, %51
  br i1 %cmp.i.i341.not, label %if.end197, label %if.then149

if.then149:                                       ; preds = %if.end142
  %52 = ptrtoint ptr %it.sroa.0.0 to i32
  %incdec.ptr.i.i342 = getelementptr inbounds i8, ptr %it.sroa.0.0, i32 -8
  %53 = load ptr, ptr %incdec.ptr.i.i342, align 4, !tbaa !227
  %second157 = getelementptr inbounds i8, ptr %it.sroa.0.0, i32 -4
  %54 = load i32, ptr %second157, align 4, !tbaa !225
  %add.ptr158 = getelementptr inbounds i8, ptr %53, i32 %54
  %cmp159.not = icmp ugt ptr %add.ptr158, %ptr
  br i1 %cmp159.not, label %if.then160, label %if.end174

if.then160:                                       ; preds = %if.then149
  call void @llvm.lifetime.start.p0(ptr %oss161)
  call void @_ZNSt3__119basic_ostringstreamIcNS_11char_traitsIcEENS_9allocatorIcEEEC1B8ne190000Ev(ptr noundef nonnull align 4 dereferenceable(56) %oss161)
  %call1.i344 = invoke noundef nonnull align 4 dereferenceable(4) ptr @_ZNSt3__124__put_character_sequenceB8ne190000IcNS_11char_traitsIcEEEERNS_13basic_ostreamIT_T0_EES7_PKS4_j(ptr noundef nonnull align 4 dereferenceable(4) %oss161, ptr noundef nonnull @.str.30, i32 noundef 74)
          to label %invoke.cont163 unwind label %lpad162

invoke.cont163:                                   ; preds = %if.then160
  call void @llvm.lifetime.start.p0(ptr %ref.tmp165)
  %__sb_.i346 = getelementptr inbounds i8, ptr %oss161, i32 4
  invoke void @_ZNKSt3__115basic_stringbufIcNS_11char_traitsIcEENS_9allocatorIcEEE3strEv(ptr dead_on_unwind nonnull writable sret(%"class.std::__1::basic_string") align 4 %ref.tmp165, ptr noundef nonnull align 4 dereferenceable(52) %__sb_.i346)
          to label %invoke.cont167 unwind label %lpad166

invoke.cont167:                                   ; preds = %invoke.cont163
  invoke void @_Z11CheckFailedPKcS0_iRKNSt3__112basic_stringIcNS1_11char_traitsIcEENS1_9allocatorIcEEEE(ptr noundef nonnull @.str.31, ptr noundef nonnull @.str, i32 noundef 145, ptr noundef nonnull align 4 dereferenceable(12) %ref.tmp165)
          to label %invoke.cont169 unwind label %lpad168

invoke.cont169:                                   ; preds = %invoke.cont167
  %bf.load.i.i348 = load i8, ptr %ref.tmp165, align 4
  %bf.clear.i.i349 = and i8 %bf.load.i.i348, 1
  %tobool.i.not.i350 = icmp eq i8 %bf.clear.i.i349, 0
  br i1 %tobool.i.not.i350, label %_ZNSt3__112basic_stringIcNS_11char_traitsIcEENS_9allocatorIcEEED2Ev.exit355, label %if.then.i351

if.then.i351:                                     ; preds = %invoke.cont169
  %__data_.i.i352 = getelementptr inbounds i8, ptr %ref.tmp165, i32 8
  %55 = load ptr, ptr %__data_.i.i352, align 4, !tbaa !189
  %bf.load.i5.i353 = load i32, ptr %ref.tmp165, align 4
  %bf.lshr.i.i354 = and i32 %bf.load.i5.i353, -2
  call void @_ZdlPvj(ptr noundef %55, i32 noundef %bf.lshr.i.i354) #29
  br label %_ZNSt3__112basic_stringIcNS_11char_traitsIcEENS_9allocatorIcEEED2Ev.exit355

_ZNSt3__112basic_stringIcNS_11char_traitsIcEENS_9allocatorIcEEED2Ev.exit355: ; preds = %invoke.cont169, %if.then.i351
  call void @llvm.lifetime.end.p0(ptr %ref.tmp165)
  %56 = load ptr, ptr @_ZTTNSt3__119basic_ostringstreamIcNS_11char_traitsIcEENS_9allocatorIcEEEE, align 4
  store ptr %56, ptr %oss161, align 4, !tbaa !190
  %57 = load ptr, ptr getelementptr inbounds (i8, ptr @_ZTTNSt3__119basic_ostringstreamIcNS_11char_traitsIcEENS_9allocatorIcEEEE, i32 12), align 4
  %vbase.offset.ptr.i.i356 = getelementptr i8, ptr %56, i32 -12
  %vbase.offset.i.i357 = load i32, ptr %vbase.offset.ptr.i.i356, align 4
  %add.ptr.i.i358 = getelementptr inbounds i8, ptr %oss161, i32 %vbase.offset.i.i357
  store ptr %57, ptr %add.ptr.i.i358, align 4, !tbaa !190
  store ptr getelementptr inbounds inrange(-8, 56) (i8, ptr @_ZTVNSt3__115basic_stringbufIcNS_11char_traitsIcEENS_9allocatorIcEEEE, i32 8), ptr %__sb_.i346, align 4, !tbaa !190
  %__str_.i.i.i360 = getelementptr inbounds i8, ptr %oss161, i32 36
  %bf.load.i.i.i.i.i361 = load i8, ptr %__str_.i.i.i360, align 4
  %bf.clear.i.i.i.i.i362 = and i8 %bf.load.i.i.i.i.i361, 1
  %tobool.i.not.i.i.i.i363 = icmp eq i8 %bf.clear.i.i.i.i.i362, 0
  br i1 %tobool.i.not.i.i.i.i363, label %_ZNSt3__119basic_ostringstreamIcNS_11char_traitsIcEENS_9allocatorIcEEED1Ev.exit368, label %if.then.i.i.i.i364

if.then.i.i.i.i364:                               ; preds = %_ZNSt3__112basic_stringIcNS_11char_traitsIcEENS_9allocatorIcEEED2Ev.exit355
  %__data_.i.i.i.i.i365 = getelementptr inbounds i8, ptr %oss161, i32 44
  %58 = load ptr, ptr %__data_.i.i.i.i.i365, align 4, !tbaa !189
  %bf.load.i5.i.i.i.i366 = load i32, ptr %__str_.i.i.i360, align 4
  %bf.lshr.i.i.i.i.i367 = and i32 %bf.load.i5.i.i.i.i366, -2
  call void @_ZdlPvj(ptr noundef %58, i32 noundef %bf.lshr.i.i.i.i.i367) #29
  br label %_ZNSt3__119basic_ostringstreamIcNS_11char_traitsIcEENS_9allocatorIcEEED1Ev.exit368

_ZNSt3__119basic_ostringstreamIcNS_11char_traitsIcEENS_9allocatorIcEEED1Ev.exit368: ; preds = %_ZNSt3__112basic_stringIcNS_11char_traitsIcEENS_9allocatorIcEEED2Ev.exit355, %if.then.i.i.i.i364
  call void @_ZNSt3__115basic_streambufIcNS_11char_traitsIcEEED2Ev(ptr noundef nonnull align 4 dereferenceable(32) %__sb_.i346) #28
  call void @_ZNSt3__113basic_ostreamIcNS_11char_traitsIcEEED2Ev(ptr noundef nonnull align 4 dereferenceable(4) %oss161, ptr noundef nonnull getelementptr inbounds (i8, ptr @_ZTTNSt3__119basic_ostringstreamIcNS_11char_traitsIcEENS_9allocatorIcEEEE, i32 4)) #28
  %59 = getelementptr inbounds i8, ptr %oss161, i32 56
  call void @_ZNSt3__19basic_iosIcNS_11char_traitsIcEEED2Ev(ptr noundef nonnull align 4 dereferenceable(80) %59) #28
  call void @llvm.lifetime.end.p0(ptr %oss161)
  %.pre429 = load ptr, ptr %incdec.ptr.i.i342, align 4, !tbaa !227
  %.pre430 = load i32, ptr %second157, align 4, !tbaa !225
  br label %if.end174

lpad162:                                          ; preds = %if.then160
  %60 = landingpad { ptr, i32 }
          cleanup
  br label %ehcleanup172

lpad166:                                          ; preds = %invoke.cont163
  %61 = landingpad { ptr, i32 }
          cleanup
  br label %ehcleanup171

lpad168:                                          ; preds = %invoke.cont167
  %62 = landingpad { ptr, i32 }
          cleanup
  %bf.load.i.i369 = load i8, ptr %ref.tmp165, align 4
  %bf.clear.i.i370 = and i8 %bf.load.i.i369, 1
  %tobool.i.not.i371 = icmp eq i8 %bf.clear.i.i370, 0
  br i1 %tobool.i.not.i371, label %ehcleanup171, label %if.then.i372

if.then.i372:                                     ; preds = %lpad168
  %__data_.i.i373 = getelementptr inbounds i8, ptr %ref.tmp165, i32 8
  %63 = load ptr, ptr %__data_.i.i373, align 4, !tbaa !189
  %bf.load.i5.i374 = load i32, ptr %ref.tmp165, align 4
  %bf.lshr.i.i375 = and i32 %bf.load.i5.i374, -2
  call void @_ZdlPvj(ptr noundef %63, i32 noundef %bf.lshr.i.i375) #29
  br label %ehcleanup171

ehcleanup171:                                     ; preds = %if.then.i372, %lpad168, %lpad166
  %.pn212 = phi { ptr, i32 } [ %61, %lpad166 ], [ %62, %lpad168 ], [ %62, %if.then.i372 ]
  call void @llvm.lifetime.end.p0(ptr %ref.tmp165)
  br label %ehcleanup172

ehcleanup172:                                     ; preds = %ehcleanup171, %lpad162
  %.pn212.pn = phi { ptr, i32 } [ %.pn212, %ehcleanup171 ], [ %60, %lpad162 ]
  call void @_ZNSt3__119basic_ostringstreamIcNS_11char_traitsIcEENS_9allocatorIcEEED1Ev(ptr noundef nonnull align 4 dereferenceable(56) %oss161) #28
  call void @llvm.lifetime.end.p0(ptr %oss161)
  br label %ehcleanup198

if.end174:                                        ; preds = %_ZNSt3__119basic_ostringstreamIcNS_11char_traitsIcEENS_9allocatorIcEEED1Ev.exit368, %if.then149
  %64 = phi i32 [ %.pre430, %_ZNSt3__119basic_ostringstreamIcNS_11char_traitsIcEENS_9allocatorIcEEED1Ev.exit368 ], [ %54, %if.then149 ]
  %65 = phi ptr [ %.pre429, %_ZNSt3__119basic_ostringstreamIcNS_11char_traitsIcEENS_9allocatorIcEEED1Ev.exit368 ], [ %53, %if.then149 ]
  %add.ptr179 = getelementptr inbounds i8, ptr %65, i32 %64
  %cmp180 = icmp eq ptr %add.ptr179, %ptr
  br i1 %cmp180, label %if.then181, label %if.end197

if.then181:                                       ; preds = %if.end174
  %second183 = getelementptr inbounds i8, ptr %it.sroa.0.0, i32 4
  %66 = load i32, ptr %second183, align 4, !tbaa !225
  %add186 = add i32 %66, %64
  store i32 %add186, ptr %second157, align 4, !tbaa !225
  %67 = load ptr, ptr %free_, align 4, !tbaa !223
  %sub.ptr.rhs.cast.i.i377 = ptrtoint ptr %67 to i32
  %sub.ptr.sub.i.i378 = sub i32 %52, %sub.ptr.rhs.cast.i.i377
  %add.ptr.i379 = getelementptr inbounds i8, ptr %67, i32 %sub.ptr.sub.i.i378
  %add.ptr5.i380 = getelementptr inbounds i8, ptr %add.ptr.i379, i32 8
  %68 = load ptr, ptr %__end_.i265, align 4, !tbaa !200
  %cmp.not10.i.i.i382 = icmp eq ptr %add.ptr5.i380, %68
  br i1 %cmp.not10.i.i.i382, label %_ZNSt3__16vectorINS_4pairIPcjEENS_9allocatorIS3_EEE5eraseB8ne190000ENS_11__wrap_iterIPKS3_EE.exit392, label %while.body.i.i.i383

while.body.i.i.i383:                              ; preds = %if.then181, %while.body.i.i.i383
  %storemerge12.i.i.i384 = phi ptr [ %incdec.ptr3.i.i.i389, %while.body.i.i.i383 ], [ %add.ptr.i379, %if.then181 ]
  %__first.addr.011.i.i.i385 = phi ptr [ %incdec.ptr.i.i.i388, %while.body.i.i.i383 ], [ %add.ptr5.i380, %if.then181 ]
  %69 = load ptr, ptr %__first.addr.011.i.i.i385, align 4, !tbaa !201
  store ptr %69, ptr %storemerge12.i.i.i384, align 4, !tbaa !227
  %second.i.i.i.i386 = getelementptr inbounds i8, ptr %__first.addr.011.i.i.i385, i32 4
  %70 = load i32, ptr %second.i.i.i.i386, align 4, !tbaa !184
  %second3.i.i.i.i387 = getelementptr inbounds i8, ptr %storemerge12.i.i.i384, i32 4
  store i32 %70, ptr %second3.i.i.i.i387, align 4, !tbaa !225
  %incdec.ptr.i.i.i388 = getelementptr inbounds i8, ptr %__first.addr.011.i.i.i385, i32 8
  %incdec.ptr3.i.i.i389 = getelementptr inbounds i8, ptr %storemerge12.i.i.i384, i32 8
  %cmp.not.i.i.i390 = icmp eq ptr %incdec.ptr.i.i.i388, %68
